Archive member included to satisfy reference by file (symbol)

C:\Users\a5143778\e2_studio\customized_workspace\RA6T3_MCILV1_SPM_LESS_FOC_E2S_V101\ra\fsp\lib\rm_motor_current\cm33_gcc\librm_motor_current.a(rm_motor_current_pi_gain_calc.o)
                              ./ra/fsp/src/rm_motor_current/rm_motor_current.o (rm_motor_current_pi_gain_calc)
C:\Users\a5143778\e2_studio\customized_workspace\RA6T3_MCILV1_SPM_LESS_FOC_E2S_V101\ra\fsp\lib\rm_motor_current\cm33_gcc\librm_motor_current.a(rm_motor_volt_error_comp.o)
                              ./ra/fsp/src/rm_motor_current/rm_motor_current.o (rm_motor_voltage_error_compensation_init)
C:\Users\a5143778\e2_studio\customized_workspace\RA6T3_MCILV1_SPM_LESS_FOC_E2S_V101\ra\fsp\lib\rm_motor_estimate\cm33_gcc\librm_motor_estimate.a(rm_motor_estimate_bemf_observer.o)
                              ./ra/fsp/src/rm_motor_estimate/rm_motor_estimate.o (rm_motor_estimate_bemf_observer)
C:\Users\a5143778\e2_studio\customized_workspace\RA6T3_MCILV1_SPM_LESS_FOC_E2S_V101\ra\fsp\lib\rm_motor_speed\cm33_gcc\librm_motor_speed.a(rm_motor_speed_disturbance_observer.o)
                              ./ra/fsp/src/rm_motor_speed/rm_motor_speed.o (rm_motor_speed_disturbance_observer_init)
C:\Users\a5143778\e2_studio\customized_workspace\RA6T3_MCILV1_SPM_LESS_FOC_E2S_V101\ra\fsp\lib\rm_motor_speed\cm33_gcc\librm_motor_speed.a(rm_motor_speed_fluxwkn.o)
                              ./ra/fsp/src/rm_motor_speed/rm_motor_speed.o (rm_motor_speed_fluxwkn_reset)
C:\Users\a5143778\e2_studio\customized_workspace\RA6T3_MCILV1_SPM_LESS_FOC_E2S_V101\ra\fsp\lib\rm_motor_speed\cm33_gcc\librm_motor_speed.a(rm_motor_speed_gain_calc.o)
                              ./ra/fsp/src/rm_motor_speed/rm_motor_speed.o (rm_motor_speed_pi_gain_calc)
C:\Users\a5143778\e2_studio\customized_workspace\RA6T3_MCILV1_SPM_LESS_FOC_E2S_V101\ra\fsp\lib\rm_motor_speed\cm33_gcc\librm_motor_speed.a(rm_motor_speed_observer.o)
                              ./ra/fsp/src/rm_motor_speed/rm_motor_speed.o (rm_motor_speed_observer_init)
C:\Users\a5143778\e2_studio\customized_workspace\RA6T3_MCILV1_SPM_LESS_FOC_E2S_V101\ra\fsp\lib\rm_motor_speed\cm33_gcc\librm_motor_speed.a(rm_motor_speed_opl2less.o)
                              ./ra/fsp/src/rm_motor_speed/rm_motor_speed.o (rm_motor_speed_opl2less_iq_calc)
C:\Users\a5143778\e2_studio\customized_workspace\RA6T3_MCILV1_SPM_LESS_FOC_E2S_V101\ra\fsp\lib\rm_motor_speed\cm33_gcc\librm_motor_speed.a(rm_motor_speed_opl_damp_ctrl.o)
                              ./ra/fsp/src/rm_motor_speed/rm_motor_speed.o (rm_motor_speed_opl_damp_ctrl)
c:/program files (x86)/gnu arm embedded toolchain/10 2021.10/bin/../lib/gcc/arm-none-eabi/10.3.1/../../../../arm-none-eabi/lib/thumb/v8-m.main+fp/hard\libg_nano.a(lib_a-errno.o)
                              ./ra/fsp/src/bsp/mcu/all/bsp_sbrk.o (__errno)
c:/program files (x86)/gnu arm embedded toolchain/10 2021.10/bin/../lib/gcc/arm-none-eabi/10.3.1/../../../../arm-none-eabi/lib/thumb/v8-m.main+fp/hard\libg_nano.a(lib_a-exit.o)
                              c:/program files (x86)/gnu arm embedded toolchain/10 2021.10/bin/../lib/gcc/arm-none-eabi/10.3.1/../../../../arm-none-eabi/lib/thumb/v8-m.main+fp/hard/rdimon-crt0.o (exit)
c:/program files (x86)/gnu arm embedded toolchain/10 2021.10/bin/../lib/gcc/arm-none-eabi/10.3.1/../../../../arm-none-eabi/lib/thumb/v8-m.main+fp/hard\libg_nano.a(lib_a-impure.o)
                              c:/program files (x86)/gnu arm embedded toolchain/10 2021.10/bin/../lib/gcc/arm-none-eabi/10.3.1/../../../../arm-none-eabi/lib/thumb/v8-m.main+fp/hard\libg_nano.a(lib_a-exit.o) (_global_impure_ptr)
c:/program files (x86)/gnu arm embedded toolchain/10 2021.10/bin/../lib/gcc/arm-none-eabi/10.3.1/../../../../arm-none-eabi/lib/thumb/v8-m.main+fp/hard\libg_nano.a(lib_a-init.o)
                              c:/program files (x86)/gnu arm embedded toolchain/10 2021.10/bin/../lib/gcc/arm-none-eabi/10.3.1/../../../../arm-none-eabi/lib/thumb/v8-m.main+fp/hard/rdimon-crt0.o (__libc_init_array)
c:/program files (x86)/gnu arm embedded toolchain/10 2021.10/bin/../lib/gcc/arm-none-eabi/10.3.1/../../../../arm-none-eabi/lib/thumb/v8-m.main+fp/hard\libg_nano.a(lib_a-memcpy-stub.o)
                              ./src/application/main/mtr_main.o (memcpy)
c:/program files (x86)/gnu arm embedded toolchain/10 2021.10/bin/../lib/gcc/arm-none-eabi/10.3.1/../../../../arm-none-eabi/lib/thumb/v8-m.main+fp/hard\libg_nano.a(lib_a-memset.o)
                              c:/program files (x86)/gnu arm embedded toolchain/10 2021.10/bin/../lib/gcc/arm-none-eabi/10.3.1/../../../../arm-none-eabi/lib/thumb/v8-m.main+fp/hard/rdimon-crt0.o (memset)
c:/program files (x86)/gnu arm embedded toolchain/10 2021.10/bin/../lib/gcc/arm-none-eabi/10.3.1/../../../../arm-none-eabi/lib/thumb/v8-m.main+fp/hard\librdimon_nano.a(rdimon-syscalls.o)
                              c:/program files (x86)/gnu arm embedded toolchain/10 2021.10/bin/../lib/gcc/arm-none-eabi/10.3.1/../../../../arm-none-eabi/lib/thumb/v8-m.main+fp/hard/rdimon-crt0.o (initialise_monitor_handles)
c:/program files (x86)/gnu arm embedded toolchain/10 2021.10/bin/../lib/gcc/arm-none-eabi/10.3.1/../../../../arm-none-eabi/lib/thumb/v8-m.main+fp/hard\librdimon_nano.a(rdimon-_exit.o)
                              c:/program files (x86)/gnu arm embedded toolchain/10 2021.10/bin/../lib/gcc/arm-none-eabi/10.3.1/../../../../arm-none-eabi/lib/thumb/v8-m.main+fp/hard\libg_nano.a(lib_a-exit.o) (_exit)
c:/program files (x86)/gnu arm embedded toolchain/10 2021.10/bin/../lib/gcc/arm-none-eabi/10.3.1/../../../../arm-none-eabi/lib/thumb/v8-m.main+fp/hard\librdimon_nano.a(rdimon-_kill.o)
                              c:/program files (x86)/gnu arm embedded toolchain/10 2021.10/bin/../lib/gcc/arm-none-eabi/10.3.1/../../../../arm-none-eabi/lib/thumb/v8-m.main+fp/hard\librdimon_nano.a(rdimon-_exit.o) (_kill_shared)
c:/program files (x86)/gnu arm embedded toolchain/10 2021.10/bin/../lib/gcc/arm-none-eabi/10.3.1/../../../../arm-none-eabi/lib/thumb/v8-m.main+fp/hard\libc_nano.a(lib_a-findfp.o)
                              c:/program files (x86)/gnu arm embedded toolchain/10 2021.10/bin/../lib/gcc/arm-none-eabi/10.3.1/../../../../arm-none-eabi/lib/thumb/v8-m.main+fp/hard\librdimon_nano.a(rdimon-syscalls.o) (__sinit)
c:/program files (x86)/gnu arm embedded toolchain/10 2021.10/bin/../lib/gcc/arm-none-eabi/10.3.1/../../../../arm-none-eabi/lib/thumb/v8-m.main+fp/hard\libc_nano.a(lib_a-fwalk.o)
                              c:/program files (x86)/gnu arm embedded toolchain/10 2021.10/bin/../lib/gcc/arm-none-eabi/10.3.1/../../../../arm-none-eabi/lib/thumb/v8-m.main+fp/hard\libc_nano.a(lib_a-findfp.o) (_fwalk)
c:/program files (x86)/gnu arm embedded toolchain/10 2021.10/bin/../lib/gcc/arm-none-eabi/10.3.1/../../../../arm-none-eabi/lib/thumb/v8-m.main+fp/hard\libc_nano.a(lib_a-lock.o)
                              c:/program files (x86)/gnu arm embedded toolchain/10 2021.10/bin/../lib/gcc/arm-none-eabi/10.3.1/../../../../arm-none-eabi/lib/thumb/v8-m.main+fp/hard\libc_nano.a(lib_a-findfp.o) (__retarget_lock_init_recursive)
c:/program files (x86)/gnu arm embedded toolchain/10 2021.10/bin/../lib/gcc/arm-none-eabi/10.3.1/../../../../arm-none-eabi/lib/thumb/v8-m.main+fp/hard\libc_nano.a(lib_a-nano-mallocr.o)
                              c:/program files (x86)/gnu arm embedded toolchain/10 2021.10/bin/../lib/gcc/arm-none-eabi/10.3.1/../../../../arm-none-eabi/lib/thumb/v8-m.main+fp/hard\libc_nano.a(lib_a-findfp.o) (_malloc_r)
c:/program files (x86)/gnu arm embedded toolchain/10 2021.10/bin/../lib/gcc/arm-none-eabi/10.3.1/../../../../arm-none-eabi/lib/thumb/v8-m.main+fp/hard\libc_nano.a(lib_a-sbrkr.o)
                              c:/program files (x86)/gnu arm embedded toolchain/10 2021.10/bin/../lib/gcc/arm-none-eabi/10.3.1/../../../../arm-none-eabi/lib/thumb/v8-m.main+fp/hard\libc_nano.a(lib_a-nano-mallocr.o) (_sbrk_r)
c:/program files (x86)/gnu arm embedded toolchain/10 2021.10/bin/../lib/gcc/arm-none-eabi/10.3.1/../../../../arm-none-eabi/lib/thumb/v8-m.main+fp/hard\libc_nano.a(lib_a-stdio.o)
                              c:/program files (x86)/gnu arm embedded toolchain/10 2021.10/bin/../lib/gcc/arm-none-eabi/10.3.1/../../../../arm-none-eabi/lib/thumb/v8-m.main+fp/hard\libc_nano.a(lib_a-findfp.o) (__sread)
c:/program files (x86)/gnu arm embedded toolchain/10 2021.10/bin/../lib/gcc/arm-none-eabi/10.3.1/../../../../arm-none-eabi/lib/thumb/v8-m.main+fp/hard\libc_nano.a(lib_a-strlen.o)
                              c:/program files (x86)/gnu arm embedded toolchain/10 2021.10/bin/../lib/gcc/arm-none-eabi/10.3.1/../../../../arm-none-eabi/lib/thumb/v8-m.main+fp/hard\librdimon_nano.a(rdimon-syscalls.o) (strlen)
c:/program files (x86)/gnu arm embedded toolchain/10 2021.10/bin/../lib/gcc/arm-none-eabi/10.3.1/../../../../arm-none-eabi/lib/thumb/v8-m.main+fp/hard\libc_nano.a(lib_a-writer.o)
                              c:/program files (x86)/gnu arm embedded toolchain/10 2021.10/bin/../lib/gcc/arm-none-eabi/10.3.1/../../../../arm-none-eabi/lib/thumb/v8-m.main+fp/hard\libc_nano.a(lib_a-stdio.o) (_write_r)
c:/program files (x86)/gnu arm embedded toolchain/10 2021.10/bin/../lib/gcc/arm-none-eabi/10.3.1/../../../../arm-none-eabi/lib/thumb/v8-m.main+fp/hard\libc_nano.a(lib_a-closer.o)
                              c:/program files (x86)/gnu arm embedded toolchain/10 2021.10/bin/../lib/gcc/arm-none-eabi/10.3.1/../../../../arm-none-eabi/lib/thumb/v8-m.main+fp/hard\libc_nano.a(lib_a-stdio.o) (_close_r)
c:/program files (x86)/gnu arm embedded toolchain/10 2021.10/bin/../lib/gcc/arm-none-eabi/10.3.1/../../../../arm-none-eabi/lib/thumb/v8-m.main+fp/hard\libc_nano.a(lib_a-fflush.o)
                              c:/program files (x86)/gnu arm embedded toolchain/10 2021.10/bin/../lib/gcc/arm-none-eabi/10.3.1/../../../../arm-none-eabi/lib/thumb/v8-m.main+fp/hard\libc_nano.a(lib_a-findfp.o) (_fflush_r)
c:/program files (x86)/gnu arm embedded toolchain/10 2021.10/bin/../lib/gcc/arm-none-eabi/10.3.1/../../../../arm-none-eabi/lib/thumb/v8-m.main+fp/hard\libc_nano.a(lib_a-lseekr.o)
                              c:/program files (x86)/gnu arm embedded toolchain/10 2021.10/bin/../lib/gcc/arm-none-eabi/10.3.1/../../../../arm-none-eabi/lib/thumb/v8-m.main+fp/hard\libc_nano.a(lib_a-stdio.o) (_lseek_r)
c:/program files (x86)/gnu arm embedded toolchain/10 2021.10/bin/../lib/gcc/arm-none-eabi/10.3.1/../../../../arm-none-eabi/lib/thumb/v8-m.main+fp/hard\libc_nano.a(lib_a-mlock.o)
                              c:/program files (x86)/gnu arm embedded toolchain/10 2021.10/bin/../lib/gcc/arm-none-eabi/10.3.1/../../../../arm-none-eabi/lib/thumb/v8-m.main+fp/hard\libc_nano.a(lib_a-nano-mallocr.o) (__malloc_lock)
c:/program files (x86)/gnu arm embedded toolchain/10 2021.10/bin/../lib/gcc/arm-none-eabi/10.3.1/../../../../arm-none-eabi/lib/thumb/v8-m.main+fp/hard\libc_nano.a(lib_a-nano-freer.o)
                              c:/program files (x86)/gnu arm embedded toolchain/10 2021.10/bin/../lib/gcc/arm-none-eabi/10.3.1/../../../../arm-none-eabi/lib/thumb/v8-m.main+fp/hard\libc_nano.a(lib_a-fflush.o) (_free_r)
c:/program files (x86)/gnu arm embedded toolchain/10 2021.10/bin/../lib/gcc/arm-none-eabi/10.3.1/../../../../arm-none-eabi/lib/thumb/v8-m.main+fp/hard\libc_nano.a(lib_a-readr.o)
                              c:/program files (x86)/gnu arm embedded toolchain/10 2021.10/bin/../lib/gcc/arm-none-eabi/10.3.1/../../../../arm-none-eabi/lib/thumb/v8-m.main+fp/hard\libc_nano.a(lib_a-stdio.o) (_read_r)
c:/program files (x86)/gnu arm embedded toolchain/10 2021.10/bin/../lib/gcc/arm-none-eabi/10.3.1/../../../../arm-none-eabi/lib/thumb/v8-m.main+fp/hard\libc_nano.a(lib_a-reent.o)
                              c:/program files (x86)/gnu arm embedded toolchain/10 2021.10/bin/../lib/gcc/arm-none-eabi/10.3.1/../../../../arm-none-eabi/lib/thumb/v8-m.main+fp/hard\libc_nano.a(lib_a-sbrkr.o) (errno)
c:/program files (x86)/gnu arm embedded toolchain/10 2021.10/bin/../lib/gcc/arm-none-eabi/10.3.1/../../../../arm-none-eabi/lib/thumb/v8-m.main+fp/hard\libm.a(lib_a-sf_atan.o)
                              ./ra/fsp/src/rm_motor_estimate/rm_motor_estimate.o (atanf)
c:/program files (x86)/gnu arm embedded toolchain/10 2021.10/bin/../lib/gcc/arm-none-eabi/10.3.1/../../../../arm-none-eabi/lib/thumb/v8-m.main+fp/hard\libm.a(lib_a-sf_cos.o)
                              C:\Users\a5143778\e2_studio\customized_workspace\RA6T3_MCILV1_SPM_LESS_FOC_E2S_V101\ra\fsp\lib\rm_motor_speed\cm33_gcc\librm_motor_speed.a(rm_motor_speed_opl2less.o) (cosf)
c:/program files (x86)/gnu arm embedded toolchain/10 2021.10/bin/../lib/gcc/arm-none-eabi/10.3.1/../../../../arm-none-eabi/lib/thumb/v8-m.main+fp/hard\libm.a(lib_a-sf_fabs.o)
                              c:/program files (x86)/gnu arm embedded toolchain/10 2021.10/bin/../lib/gcc/arm-none-eabi/10.3.1/../../../../arm-none-eabi/lib/thumb/v8-m.main+fp/hard\libm.a(lib_a-sf_atan.o) (fabsf)
c:/program files (x86)/gnu arm embedded toolchain/10 2021.10/bin/../lib/gcc/arm-none-eabi/10.3.1/../../../../arm-none-eabi/lib/thumb/v8-m.main+fp/hard\libm.a(lib_a-sf_sin.o)
                              C:\Users\a5143778\e2_studio\customized_workspace\RA6T3_MCILV1_SPM_LESS_FOC_E2S_V101\ra\fsp\lib\rm_motor_speed\cm33_gcc\librm_motor_speed.a(rm_motor_speed_opl2less.o) (sinf)
c:/program files (x86)/gnu arm embedded toolchain/10 2021.10/bin/../lib/gcc/arm-none-eabi/10.3.1/../../../../arm-none-eabi/lib/thumb/v8-m.main+fp/hard\libm.a(lib_a-wf_sqrt.o)
                              ./ra/fsp/src/rm_motor_current/rm_motor_current.o (sqrtf)
c:/program files (x86)/gnu arm embedded toolchain/10 2021.10/bin/../lib/gcc/arm-none-eabi/10.3.1/../../../../arm-none-eabi/lib/thumb/v8-m.main+fp/hard\libm.a(lib_a-ef_rem_pio2.o)
                              c:/program files (x86)/gnu arm embedded toolchain/10 2021.10/bin/../lib/gcc/arm-none-eabi/10.3.1/../../../../arm-none-eabi/lib/thumb/v8-m.main+fp/hard\libm.a(lib_a-sf_cos.o) (__ieee754_rem_pio2f)
c:/program files (x86)/gnu arm embedded toolchain/10 2021.10/bin/../lib/gcc/arm-none-eabi/10.3.1/../../../../arm-none-eabi/lib/thumb/v8-m.main+fp/hard\libm.a(lib_a-ef_sqrt.o)
                              c:/program files (x86)/gnu arm embedded toolchain/10 2021.10/bin/../lib/gcc/arm-none-eabi/10.3.1/../../../../arm-none-eabi/lib/thumb/v8-m.main+fp/hard\libm.a(lib_a-wf_sqrt.o) (__ieee754_sqrtf)
c:/program files (x86)/gnu arm embedded toolchain/10 2021.10/bin/../lib/gcc/arm-none-eabi/10.3.1/../../../../arm-none-eabi/lib/thumb/v8-m.main+fp/hard\libm.a(lib_a-kf_cos.o)
                              c:/program files (x86)/gnu arm embedded toolchain/10 2021.10/bin/../lib/gcc/arm-none-eabi/10.3.1/../../../../arm-none-eabi/lib/thumb/v8-m.main+fp/hard\libm.a(lib_a-sf_cos.o) (__kernel_cosf)
c:/program files (x86)/gnu arm embedded toolchain/10 2021.10/bin/../lib/gcc/arm-none-eabi/10.3.1/../../../../arm-none-eabi/lib/thumb/v8-m.main+fp/hard\libm.a(lib_a-kf_rem_pio2.o)
                              c:/program files (x86)/gnu arm embedded toolchain/10 2021.10/bin/../lib/gcc/arm-none-eabi/10.3.1/../../../../arm-none-eabi/lib/thumb/v8-m.main+fp/hard\libm.a(lib_a-ef_rem_pio2.o) (__kernel_rem_pio2f)
c:/program files (x86)/gnu arm embedded toolchain/10 2021.10/bin/../lib/gcc/arm-none-eabi/10.3.1/../../../../arm-none-eabi/lib/thumb/v8-m.main+fp/hard\libm.a(lib_a-kf_sin.o)
                              c:/program files (x86)/gnu arm embedded toolchain/10 2021.10/bin/../lib/gcc/arm-none-eabi/10.3.1/../../../../arm-none-eabi/lib/thumb/v8-m.main+fp/hard\libm.a(lib_a-sf_cos.o) (__kernel_sinf)
c:/program files (x86)/gnu arm embedded toolchain/10 2021.10/bin/../lib/gcc/arm-none-eabi/10.3.1/../../../../arm-none-eabi/lib/thumb/v8-m.main+fp/hard\libm.a(lib_a-sf_floor.o)
                              c:/program files (x86)/gnu arm embedded toolchain/10 2021.10/bin/../lib/gcc/arm-none-eabi/10.3.1/../../../../arm-none-eabi/lib/thumb/v8-m.main+fp/hard\libm.a(lib_a-kf_rem_pio2.o) (floorf)
c:/program files (x86)/gnu arm embedded toolchain/10 2021.10/bin/../lib/gcc/arm-none-eabi/10.3.1/../../../../arm-none-eabi/lib/thumb/v8-m.main+fp/hard\libm.a(lib_a-sf_scalbn.o)
                              c:/program files (x86)/gnu arm embedded toolchain/10 2021.10/bin/../lib/gcc/arm-none-eabi/10.3.1/../../../../arm-none-eabi/lib/thumb/v8-m.main+fp/hard\libm.a(lib_a-kf_rem_pio2.o) (scalbnf)

Discarded input sections

 .text          0x00000000        0x0 c:/program files (x86)/gnu arm embedded toolchain/10 2021.10/bin/../lib/gcc/arm-none-eabi/10.3.1/thumb/v8-m.main+fp/hard/crti.o
 .data          0x00000000        0x0 c:/program files (x86)/gnu arm embedded toolchain/10 2021.10/bin/../lib/gcc/arm-none-eabi/10.3.1/thumb/v8-m.main+fp/hard/crti.o
 .bss           0x00000000        0x0 c:/program files (x86)/gnu arm embedded toolchain/10 2021.10/bin/../lib/gcc/arm-none-eabi/10.3.1/thumb/v8-m.main+fp/hard/crti.o
 .data          0x00000000        0x4 c:/program files (x86)/gnu arm embedded toolchain/10 2021.10/bin/../lib/gcc/arm-none-eabi/10.3.1/thumb/v8-m.main+fp/hard/crtbegin.o
 .rodata        0x00000000       0x24 c:/program files (x86)/gnu arm embedded toolchain/10 2021.10/bin/../lib/gcc/arm-none-eabi/10.3.1/thumb/v8-m.main+fp/hard/crtbegin.o
 .text          0x00000000       0xf8 c:/program files (x86)/gnu arm embedded toolchain/10 2021.10/bin/../lib/gcc/arm-none-eabi/10.3.1/../../../../arm-none-eabi/lib/thumb/v8-m.main+fp/hard/rdimon-crt0.o
 .data          0x00000000      0x118 c:/program files (x86)/gnu arm embedded toolchain/10 2021.10/bin/../lib/gcc/arm-none-eabi/10.3.1/../../../../arm-none-eabi/lib/thumb/v8-m.main+fp/hard/rdimon-crt0.o
 .bss           0x00000000        0x0 c:/program files (x86)/gnu arm embedded toolchain/10 2021.10/bin/../lib/gcc/arm-none-eabi/10.3.1/../../../../arm-none-eabi/lib/thumb/v8-m.main+fp/hard/rdimon-crt0.o
 .ARM.extab     0x00000000        0x0 c:/program files (x86)/gnu arm embedded toolchain/10 2021.10/bin/../lib/gcc/arm-none-eabi/10.3.1/../../../../arm-none-eabi/lib/thumb/v8-m.main+fp/hard/rdimon-crt0.o
 .ARM.exidx     0x00000000       0x10 c:/program files (x86)/gnu arm embedded toolchain/10 2021.10/bin/../lib/gcc/arm-none-eabi/10.3.1/../../../../arm-none-eabi/lib/thumb/v8-m.main+fp/hard/rdimon-crt0.o
 .ARM.attributes
                0x00000000       0x20 c:/program files (x86)/gnu arm embedded toolchain/10 2021.10/bin/../lib/gcc/arm-none-eabi/10.3.1/../../../../arm-none-eabi/lib/thumb/v8-m.main+fp/hard/rdimon-crt0.o
 .text          0x00000000        0x0 ./src/application/user_interface/ics/r_mtr_ics.o
 .data          0x00000000        0x0 ./src/application/user_interface/ics/r_mtr_ics.o
 .bss           0x00000000        0x0 ./src/application/user_interface/ics/r_mtr_ics.o
 .text          0x00000000        0x0 ./src/application/main/mtr_main.o
 .data          0x00000000        0x0 ./src/application/main/mtr_main.o
 .bss           0x00000000        0x0 ./src/application/main/mtr_main.o
 .bss.com_f4_on_the_fly_pll_zeta
                0x00000000        0x4 ./src/application/main/mtr_main.o
 .text          0x00000000        0x0 ./src/hal_entry.o
 .data          0x00000000        0x0 ./src/hal_entry.o
 .bss           0x00000000        0x0 ./src/hal_entry.o
 .text          0x00000000        0x0 ./ra_gen/common_data.o
 .data          0x00000000        0x0 ./ra_gen/common_data.o
 .bss           0x00000000        0x0 ./ra_gen/common_data.o
 .text.g_common_init
                0x00000000        0x4 ./ra_gen/common_data.o
 .text          0x00000000        0x0 ./ra_gen/elc_data.o
 .data          0x00000000        0x0 ./ra_gen/elc_data.o
 .bss           0x00000000        0x0 ./ra_gen/elc_data.o
 .text          0x00000000        0x0 ./ra_gen/hal_data.o
 .data          0x00000000        0x0 ./ra_gen/hal_data.o
 .bss           0x00000000        0x0 ./ra_gen/hal_data.o
 .text.g_hal_init
                0x00000000        0x4 ./ra_gen/hal_data.o
 .text          0x00000000        0x0 ./ra_gen/main.o
 .data          0x00000000        0x0 ./ra_gen/main.o
 .bss           0x00000000        0x0 ./ra_gen/main.o
 .text          0x00000000        0x0 ./ra_gen/pin_data.o
 .data          0x00000000        0x0 ./ra_gen/pin_data.o
 .bss           0x00000000        0x0 ./ra_gen/pin_data.o
 .text          0x00000000        0x0 ./ra_gen/vector_data.o
 .data          0x00000000        0x0 ./ra_gen/vector_data.o
 .bss           0x00000000        0x0 ./ra_gen/vector_data.o
 .text          0x00000000        0x0 ./ra/fsp/src/rm_motor_speed/rm_motor_speed.o
 .data          0x00000000        0x0 ./ra/fsp/src/rm_motor_speed/rm_motor_speed.o
 .bss           0x00000000        0x0 ./ra/fsp/src/rm_motor_speed/rm_motor_speed.o
 .text          0x00000000        0x0 ./ra/fsp/src/rm_motor_sensorless/rm_motor_sensorless.o
 .data          0x00000000        0x0 ./ra/fsp/src/rm_motor_sensorless/rm_motor_sensorless.o
 .bss           0x00000000        0x0 ./ra/fsp/src/rm_motor_sensorless/rm_motor_sensorless.o
 .text          0x00000000        0x0 ./ra/fsp/src/rm_motor_estimate/rm_motor_estimate.o
 .data          0x00000000        0x0 ./ra/fsp/src/rm_motor_estimate/rm_motor_estimate.o
 .bss           0x00000000        0x0 ./ra/fsp/src/rm_motor_estimate/rm_motor_estimate.o
 .text          0x00000000        0x0 ./ra/fsp/src/rm_motor_driver/rm_motor_driver.o
 .data          0x00000000        0x0 ./ra/fsp/src/rm_motor_driver/rm_motor_driver.o
 .bss           0x00000000        0x0 ./ra/fsp/src/rm_motor_driver/rm_motor_driver.o
 .text          0x00000000        0x0 ./ra/fsp/src/rm_motor_current/rm_motor_current.o
 .data          0x00000000        0x0 ./ra/fsp/src/rm_motor_current/rm_motor_current.o
 .bss           0x00000000        0x0 ./ra/fsp/src/rm_motor_current/rm_motor_current.o
 .text.rm_motor_current_encoder_cyclic
                0x00000000       0x10 ./ra/fsp/src/rm_motor_current/rm_motor_current.o
 .text.rm_motor_current_encoder_angle_adjust
                0x00000000       0x18 ./ra/fsp/src/rm_motor_current/rm_motor_current.o
 .text.rm_motor_current_induction_cyclic
                0x00000000       0x10 ./ra/fsp/src/rm_motor_current/rm_motor_current.o
 .text.rm_motor_current_induction_angle_adjust
                0x00000000       0x18 ./ra/fsp/src/rm_motor_current/rm_motor_current.o
 .text          0x00000000        0x0 ./ra/fsp/src/r_poeg/r_poeg.o
 .data          0x00000000        0x0 ./ra/fsp/src/r_poeg/r_poeg.o
 .bss           0x00000000        0x0 ./ra/fsp/src/r_poeg/r_poeg.o
 .text          0x00000000        0x0 ./ra/fsp/src/r_ioport/r_ioport.o
 .data          0x00000000        0x0 ./ra/fsp/src/r_ioport/r_ioport.o
 .bss           0x00000000        0x0 ./ra/fsp/src/r_ioport/r_ioport.o
 .text          0x00000000        0x0 ./ra/fsp/src/r_gpt_three_phase/r_gpt_three_phase.o
 .data          0x00000000        0x0 ./ra/fsp/src/r_gpt_three_phase/r_gpt_three_phase.o
 .bss           0x00000000        0x0 ./ra/fsp/src/r_gpt_three_phase/r_gpt_three_phase.o
 .text          0x00000000        0x0 ./ra/fsp/src/r_gpt/r_gpt.o
 .data          0x00000000        0x0 ./ra/fsp/src/r_gpt/r_gpt.o
 .bss           0x00000000        0x0 ./ra/fsp/src/r_gpt/r_gpt.o
 .text.r_gpt_call_callback
                0x00000000       0x3c ./ra/fsp/src/r_gpt/r_gpt.o
 .text.r_gpt_ccmp_common_isr
                0x00000000       0xcc ./ra/fsp/src/r_gpt/r_gpt.o
 .text.R_GPT_CounterSet
                0x00000000        0xc ./ra/fsp/src/r_gpt/r_gpt.o
 .text.R_GPT_PwmOutputDelaySet
                0x00000000        0x4 ./ra/fsp/src/r_gpt/r_gpt.o
 .text.R_GPT_PwmOutputDelayInitialize
                0x00000000        0x4 ./ra/fsp/src/r_gpt/r_gpt.o
 .text.gpt_counter_overflow_isr
                0x00000000       0x90 ./ra/fsp/src/r_gpt/r_gpt.o
 .text.gpt_counter_underflow_isr
                0x00000000       0x34 ./ra/fsp/src/r_gpt/r_gpt.o
 .text.gpt_capture_compare_a_isr
                0x00000000        0x8 ./ra/fsp/src/r_gpt/r_gpt.o
 .text.gpt_capture_compare_b_isr
                0x00000000        0x8 ./ra/fsp/src/r_gpt/r_gpt.o
 .text          0x00000000        0x0 ./ra/fsp/src/r_elc/r_elc.o
 .data          0x00000000        0x0 ./ra/fsp/src/r_elc/r_elc.o
 .bss           0x00000000        0x0 ./ra/fsp/src/r_elc/r_elc.o
 .text          0x00000000        0x0 ./ra/fsp/src/r_agt/r_agt.o
 .data          0x00000000        0x0 ./ra/fsp/src/r_agt/r_agt.o
 .bss           0x00000000        0x0 ./ra/fsp/src/r_agt/r_agt.o
 .text          0x00000000        0x0 ./ra/fsp/src/r_adc/r_adc.o
 .data          0x00000000        0x0 ./ra/fsp/src/r_adc/r_adc.o
 .bss           0x00000000        0x0 ./ra/fsp/src/r_adc/r_adc.o
 .text.R_ADC_SampleStateCountSet
                0x00000000       0x14 ./ra/fsp/src/r_adc/r_adc.o
 .text.adc_scan_end_b_isr
                0x00000000        0x8 ./ra/fsp/src/r_adc/r_adc.o
 .text.adc_window_compare_isr
                0x00000000      0x11c ./ra/fsp/src/r_adc/r_adc.o
 .text          0x00000000        0x0 ./ra/fsp/src/bsp/mcu/all/bsp_clocks.o
 .data          0x00000000        0x0 ./ra/fsp/src/bsp/mcu/all/bsp_clocks.o
 .bss           0x00000000        0x0 ./ra/fsp/src/bsp/mcu/all/bsp_clocks.o
 .text.bsp_prv_operating_mode_set
                0x00000000       0x60 ./ra/fsp/src/bsp/mcu/all/bsp_clocks.o
 .text.bsp_prv_prepare_pll
                0x00000000       0x10 ./ra/fsp/src/bsp/mcu/all/bsp_clocks.o
 .text.prv_clock_dividers_set
                0x00000000        0xc ./ra/fsp/src/bsp/mcu/all/bsp_clocks.o
 .text.bsp_prv_clock_set
                0x00000000       0xc0 ./ra/fsp/src/bsp/mcu/all/bsp_clocks.o
 .text.R_BSP_OctaclkUpdate
                0x00000000        0x4 ./ra/fsp/src/bsp/mcu/all/bsp_clocks.o
 .text.R_BSP_SourceClockHzGet
                0x00000000        0xc ./ra/fsp/src/bsp/mcu/all/bsp_clocks.o
 .text          0x00000000        0x0 ./ra/fsp/src/bsp/mcu/all/bsp_common.o
 .data          0x00000000        0x0 ./ra/fsp/src/bsp/mcu/all/bsp_common.o
 .bss           0x00000000        0x0 ./ra/fsp/src/bsp/mcu/all/bsp_common.o
 .text.R_FSP_VersionGet
                0x00000000       0x10 ./ra/fsp/src/bsp/mcu/all/bsp_common.o
 .text.bsp_init_internal
                0x00000000        0x4 ./ra/fsp/src/bsp/mcu/all/bsp_common.o
 .text.__assert_func
                0x00000000        0x4 ./ra/fsp/src/bsp/mcu/all/bsp_common.o
 .text          0x00000000        0x0 ./ra/fsp/src/bsp/mcu/all/bsp_delay.o
 .data          0x00000000        0x0 ./ra/fsp/src/bsp/mcu/all/bsp_delay.o
 .bss           0x00000000        0x0 ./ra/fsp/src/bsp/mcu/all/bsp_delay.o
 .text          0x00000000        0x0 ./ra/fsp/src/bsp/mcu/all/bsp_group_irq.o
 .data          0x00000000        0x0 ./ra/fsp/src/bsp/mcu/all/bsp_group_irq.o
 .bss           0x00000000        0x0 ./ra/fsp/src/bsp/mcu/all/bsp_group_irq.o
 .text.R_BSP_GroupIrqWrite
                0x00000000       0x10 ./ra/fsp/src/bsp/mcu/all/bsp_group_irq.o
 .text          0x00000000        0x0 ./ra/fsp/src/bsp/mcu/all/bsp_guard.o
 .data          0x00000000        0x0 ./ra/fsp/src/bsp/mcu/all/bsp_guard.o
 .bss           0x00000000        0x0 ./ra/fsp/src/bsp/mcu/all/bsp_guard.o
 .debug_info    0x00000000       0x79 ./ra/fsp/src/bsp/mcu/all/bsp_guard.o
 .debug_abbrev  0x00000000       0x26 ./ra/fsp/src/bsp/mcu/all/bsp_guard.o
 .debug_aranges
                0x00000000       0x18 ./ra/fsp/src/bsp/mcu/all/bsp_guard.o
 .debug_line    0x00000000       0x1d ./ra/fsp/src/bsp/mcu/all/bsp_guard.o
 .debug_str     0x00000000      0x1ee ./ra/fsp/src/bsp/mcu/all/bsp_guard.o
 .comment       0x00000000       0x4a ./ra/fsp/src/bsp/mcu/all/bsp_guard.o
 .ARM.attributes
                0x00000000       0x3a ./ra/fsp/src/bsp/mcu/all/bsp_guard.o
 .text          0x00000000        0x0 ./ra/fsp/src/bsp/mcu/all/bsp_io.o
 .data          0x00000000        0x0 ./ra/fsp/src/bsp/mcu/all/bsp_io.o
 .bss           0x00000000        0x0 ./ra/fsp/src/bsp/mcu/all/bsp_io.o
 .text          0x00000000        0x0 ./ra/fsp/src/bsp/mcu/all/bsp_irq.o
 .data          0x00000000        0x0 ./ra/fsp/src/bsp/mcu/all/bsp_irq.o
 .bss           0x00000000        0x0 ./ra/fsp/src/bsp/mcu/all/bsp_irq.o
 .rodata.g_interrupt_event_link_select
                0x00000000       0xc0 ./ra/fsp/src/bsp/mcu/all/bsp_irq.o
 .text          0x00000000        0x0 ./ra/fsp/src/bsp/mcu/all/bsp_macl.o
 .data          0x00000000        0x0 ./ra/fsp/src/bsp/mcu/all/bsp_macl.o
 .bss           0x00000000        0x0 ./ra/fsp/src/bsp/mcu/all/bsp_macl.o
 .debug_info    0x00000000       0x79 ./ra/fsp/src/bsp/mcu/all/bsp_macl.o
 .debug_abbrev  0x00000000       0x26 ./ra/fsp/src/bsp/mcu/all/bsp_macl.o
 .debug_aranges
                0x00000000       0x18 ./ra/fsp/src/bsp/mcu/all/bsp_macl.o
 .debug_line    0x00000000       0x1d ./ra/fsp/src/bsp/mcu/all/bsp_macl.o
 .debug_str     0x00000000      0x1ed ./ra/fsp/src/bsp/mcu/all/bsp_macl.o
 .comment       0x00000000       0x4a ./ra/fsp/src/bsp/mcu/all/bsp_macl.o
 .ARM.attributes
                0x00000000       0x3a ./ra/fsp/src/bsp/mcu/all/bsp_macl.o
 .text          0x00000000        0x0 ./ra/fsp/src/bsp/mcu/all/bsp_register_protection.o
 .data          0x00000000        0x0 ./ra/fsp/src/bsp/mcu/all/bsp_register_protection.o
 .bss           0x00000000        0x0 ./ra/fsp/src/bsp/mcu/all/bsp_register_protection.o
 .text          0x00000000        0x0 ./ra/fsp/src/bsp/mcu/all/bsp_rom_registers.o
 .data          0x00000000        0x0 ./ra/fsp/src/bsp/mcu/all/bsp_rom_registers.o
 .bss           0x00000000        0x0 ./ra/fsp/src/bsp/mcu/all/bsp_rom_registers.o
 .text          0x00000000        0x0 ./ra/fsp/src/bsp/mcu/all/bsp_sbrk.o
 .data          0x00000000        0x0 ./ra/fsp/src/bsp/mcu/all/bsp_sbrk.o
 .bss           0x00000000        0x0 ./ra/fsp/src/bsp/mcu/all/bsp_sbrk.o
 .text._sbrk    0x00000000       0x44 ./ra/fsp/src/bsp/mcu/all/bsp_sbrk.o
 .bss.current_heap_end.0
                0x00000000        0x4 ./ra/fsp/src/bsp/mcu/all/bsp_sbrk.o
 .debug_info    0x00000000      0x149 ./ra/fsp/src/bsp/mcu/all/bsp_sbrk.o
 .debug_abbrev  0x00000000       0xcc ./ra/fsp/src/bsp/mcu/all/bsp_sbrk.o
 .debug_loc     0x00000000      0x11a ./ra/fsp/src/bsp/mcu/all/bsp_sbrk.o
 .debug_aranges
                0x00000000       0x20 ./ra/fsp/src/bsp/mcu/all/bsp_sbrk.o
 .debug_ranges  0x00000000       0x10 ./ra/fsp/src/bsp/mcu/all/bsp_sbrk.o
 .debug_line    0x00000000      0x1b1 ./ra/fsp/src/bsp/mcu/all/bsp_sbrk.o
 .debug_str     0x00000000      0x278 ./ra/fsp/src/bsp/mcu/all/bsp_sbrk.o
 .comment       0x00000000       0x4a ./ra/fsp/src/bsp/mcu/all/bsp_sbrk.o
 .debug_frame   0x00000000       0x28 ./ra/fsp/src/bsp/mcu/all/bsp_sbrk.o
 .ARM.attributes
                0x00000000       0x3a ./ra/fsp/src/bsp/mcu/all/bsp_sbrk.o
 .text          0x00000000        0x0 ./ra/fsp/src/bsp/mcu/all/bsp_sdram.o
 .data          0x00000000        0x0 ./ra/fsp/src/bsp/mcu/all/bsp_sdram.o
 .bss           0x00000000        0x0 ./ra/fsp/src/bsp/mcu/all/bsp_sdram.o
 .debug_info    0x00000000       0x79 ./ra/fsp/src/bsp/mcu/all/bsp_sdram.o
 .debug_abbrev  0x00000000       0x26 ./ra/fsp/src/bsp/mcu/all/bsp_sdram.o
 .debug_aranges
                0x00000000       0x18 ./ra/fsp/src/bsp/mcu/all/bsp_sdram.o
 .debug_line    0x00000000       0x1d ./ra/fsp/src/bsp/mcu/all/bsp_sdram.o
 .debug_str     0x00000000      0x1ee ./ra/fsp/src/bsp/mcu/all/bsp_sdram.o
 .comment       0x00000000       0x4a ./ra/fsp/src/bsp/mcu/all/bsp_sdram.o
 .ARM.attributes
                0x00000000       0x3a ./ra/fsp/src/bsp/mcu/all/bsp_sdram.o
 .text          0x00000000        0x0 ./ra/fsp/src/bsp/mcu/all/bsp_security.o
 .data          0x00000000        0x0 ./ra/fsp/src/bsp/mcu/all/bsp_security.o
 .bss           0x00000000        0x0 ./ra/fsp/src/bsp/mcu/all/bsp_security.o
 .rodata.gp_start_of_nonsecure_callable_flash
                0x00000000        0x4 ./ra/fsp/src/bsp/mcu/all/bsp_security.o
 .rodata.gp_start_of_nonsecure_callable_ram
                0x00000000        0x4 ./ra/fsp/src/bsp/mcu/all/bsp_security.o
 .rodata.gp_start_of_nonsecure_data_flash
                0x00000000        0x4 ./ra/fsp/src/bsp/mcu/all/bsp_security.o
 .rodata.gp_start_of_nonsecure_flash
                0x00000000        0x4 ./ra/fsp/src/bsp/mcu/all/bsp_security.o
 .rodata.gp_start_of_nonsecure_ram
                0x00000000        0x4 ./ra/fsp/src/bsp/mcu/all/bsp_security.o
 .debug_info    0x00000000      0x13c ./ra/fsp/src/bsp/mcu/all/bsp_security.o
 .debug_abbrev  0x00000000       0x6b ./ra/fsp/src/bsp/mcu/all/bsp_security.o
 .debug_aranges
                0x00000000       0x18 ./ra/fsp/src/bsp/mcu/all/bsp_security.o
 .debug_line    0x00000000      0x11c ./ra/fsp/src/bsp/mcu/all/bsp_security.o
 .debug_str     0x00000000      0x2ee ./ra/fsp/src/bsp/mcu/all/bsp_security.o
 .comment       0x00000000       0x4a ./ra/fsp/src/bsp/mcu/all/bsp_security.o
 .ARM.attributes
                0x00000000       0x3a ./ra/fsp/src/bsp/mcu/all/bsp_security.o
 .text          0x00000000        0x0 ./ra/fsp/src/bsp/cmsis/Device/RENESAS/Source/startup.o
 .data          0x00000000        0x0 ./ra/fsp/src/bsp/cmsis/Device/RENESAS/Source/startup.o
 .bss           0x00000000        0x0 ./ra/fsp/src/bsp/cmsis/Device/RENESAS/Source/startup.o
 .text          0x00000000        0x0 ./ra/fsp/src/bsp/cmsis/Device/RENESAS/Source/system.o
 .data          0x00000000        0x0 ./ra/fsp/src/bsp/cmsis/Device/RENESAS/Source/system.o
 .bss           0x00000000        0x0 ./ra/fsp/src/bsp/cmsis/Device/RENESAS/Source/system.o
 .text.R_BSP_WarmStart
                0x00000000        0x4 ./ra/fsp/src/bsp/cmsis/Device/RENESAS/Source/system.o
 .text          0x00000000        0x0 ./ra/board/ra6t3_mck/board_init.o
 .data          0x00000000        0x0 ./ra/board/ra6t3_mck/board_init.o
 .bss           0x00000000        0x0 ./ra/board/ra6t3_mck/board_init.o
 .text          0x00000000        0x0 ./ra/board/ra6t3_mck/board_leds.o
 .data          0x00000000        0x0 ./ra/board/ra6t3_mck/board_leds.o
 .bss           0x00000000        0x0 ./ra/board/ra6t3_mck/board_leds.o
 .rodata.g_bsp_leds
                0x00000000        0x8 ./ra/board/ra6t3_mck/board_leds.o
 .rodata.g_bsp_prv_leds
                0x00000000        0x4 ./ra/board/ra6t3_mck/board_leds.o
 .debug_info    0x00000000      0x7a1 ./ra/board/ra6t3_mck/board_leds.o
 .debug_abbrev  0x00000000       0xc4 ./ra/board/ra6t3_mck/board_leds.o
 .debug_aranges
                0x00000000       0x18 ./ra/board/ra6t3_mck/board_leds.o
 .debug_line    0x00000000      0x204 ./ra/board/ra6t3_mck/board_leds.o
 .debug_str     0x00000000     0x16f5 ./ra/board/ra6t3_mck/board_leds.o
 .comment       0x00000000       0x4a ./ra/board/ra6t3_mck/board_leds.o
 .ARM.attributes
                0x00000000       0x3a ./ra/board/ra6t3_mck/board_leds.o
 .text          0x00000000        0x0 C:/Users/a5143778/e2_studio/customized_workspace/RA6T3_MCILV1_SPM_LESS_FOC_E2S_V101/src/application/user_interface/ics/ICS2_RA6T3.o
 .data          0x00000000        0x0 C:/Users/a5143778/e2_studio/customized_workspace/RA6T3_MCILV1_SPM_LESS_FOC_E2S_V101/src/application/user_interface/ics/ICS2_RA6T3.o
 .bss           0x00000000        0x0 C:/Users/a5143778/e2_studio/customized_workspace/RA6T3_MCILV1_SPM_LESS_FOC_E2S_V101/src/application/user_interface/ics/ICS2_RA6T3.o
 .text.ics2_version
                0x00000000        0x8 C:/Users/a5143778/e2_studio/customized_workspace/RA6T3_MCILV1_SPM_LESS_FOC_E2S_V101/src/application/user_interface/ics/ICS2_RA6T3.o
 .text          0x00000000        0x0 C:\Users\a5143778\e2_studio\customized_workspace\RA6T3_MCILV1_SPM_LESS_FOC_E2S_V101\ra\fsp\lib\rm_motor_current\cm33_gcc\librm_motor_current.a(rm_motor_current_pi_gain_calc.o)
 .data          0x00000000        0x0 C:\Users\a5143778\e2_studio\customized_workspace\RA6T3_MCILV1_SPM_LESS_FOC_E2S_V101\ra\fsp\lib\rm_motor_current\cm33_gcc\librm_motor_current.a(rm_motor_current_pi_gain_calc.o)
 .bss           0x00000000        0x0 C:\Users\a5143778\e2_studio\customized_workspace\RA6T3_MCILV1_SPM_LESS_FOC_E2S_V101\ra\fsp\lib\rm_motor_current\cm33_gcc\librm_motor_current.a(rm_motor_current_pi_gain_calc.o)
 .text          0x00000000        0x0 C:\Users\a5143778\e2_studio\customized_workspace\RA6T3_MCILV1_SPM_LESS_FOC_E2S_V101\ra\fsp\lib\rm_motor_current\cm33_gcc\librm_motor_current.a(rm_motor_volt_error_comp.o)
 .data          0x00000000        0x0 C:\Users\a5143778\e2_studio\customized_workspace\RA6T3_MCILV1_SPM_LESS_FOC_E2S_V101\ra\fsp\lib\rm_motor_current\cm33_gcc\librm_motor_current.a(rm_motor_volt_error_comp.o)
 .bss           0x00000000        0x0 C:\Users\a5143778\e2_studio\customized_workspace\RA6T3_MCILV1_SPM_LESS_FOC_E2S_V101\ra\fsp\lib\rm_motor_current\cm33_gcc\librm_motor_current.a(rm_motor_volt_error_comp.o)
 .text          0x00000000        0x0 C:\Users\a5143778\e2_studio\customized_workspace\RA6T3_MCILV1_SPM_LESS_FOC_E2S_V101\ra\fsp\lib\rm_motor_estimate\cm33_gcc\librm_motor_estimate.a(rm_motor_estimate_bemf_observer.o)
 .data          0x00000000        0x0 C:\Users\a5143778\e2_studio\customized_workspace\RA6T3_MCILV1_SPM_LESS_FOC_E2S_V101\ra\fsp\lib\rm_motor_estimate\cm33_gcc\librm_motor_estimate.a(rm_motor_estimate_bemf_observer.o)
 .bss           0x00000000        0x0 C:\Users\a5143778\e2_studio\customized_workspace\RA6T3_MCILV1_SPM_LESS_FOC_E2S_V101\ra\fsp\lib\rm_motor_estimate\cm33_gcc\librm_motor_estimate.a(rm_motor_estimate_bemf_observer.o)
 .text          0x00000000        0x0 C:\Users\a5143778\e2_studio\customized_workspace\RA6T3_MCILV1_SPM_LESS_FOC_E2S_V101\ra\fsp\lib\rm_motor_speed\cm33_gcc\librm_motor_speed.a(rm_motor_speed_disturbance_observer.o)
 .data          0x00000000        0x0 C:\Users\a5143778\e2_studio\customized_workspace\RA6T3_MCILV1_SPM_LESS_FOC_E2S_V101\ra\fsp\lib\rm_motor_speed\cm33_gcc\librm_motor_speed.a(rm_motor_speed_disturbance_observer.o)
 .bss           0x00000000        0x0 C:\Users\a5143778\e2_studio\customized_workspace\RA6T3_MCILV1_SPM_LESS_FOC_E2S_V101\ra\fsp\lib\rm_motor_speed\cm33_gcc\librm_motor_speed.a(rm_motor_speed_disturbance_observer.o)
 .text          0x00000000        0x0 C:\Users\a5143778\e2_studio\customized_workspace\RA6T3_MCILV1_SPM_LESS_FOC_E2S_V101\ra\fsp\lib\rm_motor_speed\cm33_gcc\librm_motor_speed.a(rm_motor_speed_fluxwkn.o)
 .data          0x00000000        0x0 C:\Users\a5143778\e2_studio\customized_workspace\RA6T3_MCILV1_SPM_LESS_FOC_E2S_V101\ra\fsp\lib\rm_motor_speed\cm33_gcc\librm_motor_speed.a(rm_motor_speed_fluxwkn.o)
 .bss           0x00000000        0x0 C:\Users\a5143778\e2_studio\customized_workspace\RA6T3_MCILV1_SPM_LESS_FOC_E2S_V101\ra\fsp\lib\rm_motor_speed\cm33_gcc\librm_motor_speed.a(rm_motor_speed_fluxwkn.o)
 .text.rm_motor_speed_fluxwkn_set_iamax
                0x00000000       0x40 C:\Users\a5143778\e2_studio\customized_workspace\RA6T3_MCILV1_SPM_LESS_FOC_E2S_V101\ra\fsp\lib\rm_motor_speed\cm33_gcc\librm_motor_speed.a(rm_motor_speed_fluxwkn.o)
 .text          0x00000000        0x0 C:\Users\a5143778\e2_studio\customized_workspace\RA6T3_MCILV1_SPM_LESS_FOC_E2S_V101\ra\fsp\lib\rm_motor_speed\cm33_gcc\librm_motor_speed.a(rm_motor_speed_gain_calc.o)
 .data          0x00000000        0x0 C:\Users\a5143778\e2_studio\customized_workspace\RA6T3_MCILV1_SPM_LESS_FOC_E2S_V101\ra\fsp\lib\rm_motor_speed\cm33_gcc\librm_motor_speed.a(rm_motor_speed_gain_calc.o)
 .bss           0x00000000        0x0 C:\Users\a5143778\e2_studio\customized_workspace\RA6T3_MCILV1_SPM_LESS_FOC_E2S_V101\ra\fsp\lib\rm_motor_speed\cm33_gcc\librm_motor_speed.a(rm_motor_speed_gain_calc.o)
 .text          0x00000000        0x0 C:\Users\a5143778\e2_studio\customized_workspace\RA6T3_MCILV1_SPM_LESS_FOC_E2S_V101\ra\fsp\lib\rm_motor_speed\cm33_gcc\librm_motor_speed.a(rm_motor_speed_observer.o)
 .data          0x00000000        0x0 C:\Users\a5143778\e2_studio\customized_workspace\RA6T3_MCILV1_SPM_LESS_FOC_E2S_V101\ra\fsp\lib\rm_motor_speed\cm33_gcc\librm_motor_speed.a(rm_motor_speed_observer.o)
 .bss           0x00000000        0x0 C:\Users\a5143778\e2_studio\customized_workspace\RA6T3_MCILV1_SPM_LESS_FOC_E2S_V101\ra\fsp\lib\rm_motor_speed\cm33_gcc\librm_motor_speed.a(rm_motor_speed_observer.o)
 .text.rm_motor_speed_observer_SecondOrderLpffGainCalc
                0x00000000       0x6c C:\Users\a5143778\e2_studio\customized_workspace\RA6T3_MCILV1_SPM_LESS_FOC_E2S_V101\ra\fsp\lib\rm_motor_speed\cm33_gcc\librm_motor_speed.a(rm_motor_speed_observer.o)
 .text          0x00000000        0x0 C:\Users\a5143778\e2_studio\customized_workspace\RA6T3_MCILV1_SPM_LESS_FOC_E2S_V101\ra\fsp\lib\rm_motor_speed\cm33_gcc\librm_motor_speed.a(rm_motor_speed_opl2less.o)
 .data          0x00000000        0x0 C:\Users\a5143778\e2_studio\customized_workspace\RA6T3_MCILV1_SPM_LESS_FOC_E2S_V101\ra\fsp\lib\rm_motor_speed\cm33_gcc\librm_motor_speed.a(rm_motor_speed_opl2less.o)
 .bss           0x00000000        0x0 C:\Users\a5143778\e2_studio\customized_workspace\RA6T3_MCILV1_SPM_LESS_FOC_E2S_V101\ra\fsp\lib\rm_motor_speed\cm33_gcc\librm_motor_speed.a(rm_motor_speed_opl2less.o)
 .text          0x00000000        0x0 C:\Users\a5143778\e2_studio\customized_workspace\RA6T3_MCILV1_SPM_LESS_FOC_E2S_V101\ra\fsp\lib\rm_motor_speed\cm33_gcc\librm_motor_speed.a(rm_motor_speed_opl_damp_ctrl.o)
 .data          0x00000000        0x0 C:\Users\a5143778\e2_studio\customized_workspace\RA6T3_MCILV1_SPM_LESS_FOC_E2S_V101\ra\fsp\lib\rm_motor_speed\cm33_gcc\librm_motor_speed.a(rm_motor_speed_opl_damp_ctrl.o)
 .bss           0x00000000        0x0 C:\Users\a5143778\e2_studio\customized_workspace\RA6T3_MCILV1_SPM_LESS_FOC_E2S_V101\ra\fsp\lib\rm_motor_speed\cm33_gcc\librm_motor_speed.a(rm_motor_speed_opl_damp_ctrl.o)
 .text.rm_motor_speed_opl_damp_set_limit
                0x00000000        0x8 C:\Users\a5143778\e2_studio\customized_workspace\RA6T3_MCILV1_SPM_LESS_FOC_E2S_V101\ra\fsp\lib\rm_motor_speed\cm33_gcc\librm_motor_speed.a(rm_motor_speed_opl_damp_ctrl.o)
 .text          0x00000000        0x0 c:/program files (x86)/gnu arm embedded toolchain/10 2021.10/bin/../lib/gcc/arm-none-eabi/10.3.1/../../../../arm-none-eabi/lib/thumb/v8-m.main+fp/hard\libg_nano.a(lib_a-errno.o)
 .data          0x00000000        0x0 c:/program files (x86)/gnu arm embedded toolchain/10 2021.10/bin/../lib/gcc/arm-none-eabi/10.3.1/../../../../arm-none-eabi/lib/thumb/v8-m.main+fp/hard\libg_nano.a(lib_a-errno.o)
 .bss           0x00000000        0x0 c:/program files (x86)/gnu arm embedded toolchain/10 2021.10/bin/../lib/gcc/arm-none-eabi/10.3.1/../../../../arm-none-eabi/lib/thumb/v8-m.main+fp/hard\libg_nano.a(lib_a-errno.o)
 .text          0x00000000        0x0 c:/program files (x86)/gnu arm embedded toolchain/10 2021.10/bin/../lib/gcc/arm-none-eabi/10.3.1/../../../../arm-none-eabi/lib/thumb/v8-m.main+fp/hard\libg_nano.a(lib_a-exit.o)
 .data          0x00000000        0x0 c:/program files (x86)/gnu arm embedded toolchain/10 2021.10/bin/../lib/gcc/arm-none-eabi/10.3.1/../../../../arm-none-eabi/lib/thumb/v8-m.main+fp/hard\libg_nano.a(lib_a-exit.o)
 .bss           0x00000000        0x0 c:/program files (x86)/gnu arm embedded toolchain/10 2021.10/bin/../lib/gcc/arm-none-eabi/10.3.1/../../../../arm-none-eabi/lib/thumb/v8-m.main+fp/hard\libg_nano.a(lib_a-exit.o)
 .text.exit     0x00000000       0x28 c:/program files (x86)/gnu arm embedded toolchain/10 2021.10/bin/../lib/gcc/arm-none-eabi/10.3.1/../../../../arm-none-eabi/lib/thumb/v8-m.main+fp/hard\libg_nano.a(lib_a-exit.o)
 .debug_frame   0x00000000       0x28 c:/program files (x86)/gnu arm embedded toolchain/10 2021.10/bin/../lib/gcc/arm-none-eabi/10.3.1/../../../../arm-none-eabi/lib/thumb/v8-m.main+fp/hard\libg_nano.a(lib_a-exit.o)
 .ARM.attributes
                0x00000000       0x38 c:/program files (x86)/gnu arm embedded toolchain/10 2021.10/bin/../lib/gcc/arm-none-eabi/10.3.1/../../../../arm-none-eabi/lib/thumb/v8-m.main+fp/hard\libg_nano.a(lib_a-exit.o)
 .text          0x00000000        0x0 c:/program files (x86)/gnu arm embedded toolchain/10 2021.10/bin/../lib/gcc/arm-none-eabi/10.3.1/../../../../arm-none-eabi/lib/thumb/v8-m.main+fp/hard\libg_nano.a(lib_a-impure.o)
 .data          0x00000000        0x0 c:/program files (x86)/gnu arm embedded toolchain/10 2021.10/bin/../lib/gcc/arm-none-eabi/10.3.1/../../../../arm-none-eabi/lib/thumb/v8-m.main+fp/hard\libg_nano.a(lib_a-impure.o)
 .bss           0x00000000        0x0 c:/program files (x86)/gnu arm embedded toolchain/10 2021.10/bin/../lib/gcc/arm-none-eabi/10.3.1/../../../../arm-none-eabi/lib/thumb/v8-m.main+fp/hard\libg_nano.a(lib_a-impure.o)
 .rodata._global_impure_ptr
                0x00000000        0x4 c:/program files (x86)/gnu arm embedded toolchain/10 2021.10/bin/../lib/gcc/arm-none-eabi/10.3.1/../../../../arm-none-eabi/lib/thumb/v8-m.main+fp/hard\libg_nano.a(lib_a-impure.o)
 .text          0x00000000        0x0 c:/program files (x86)/gnu arm embedded toolchain/10 2021.10/bin/../lib/gcc/arm-none-eabi/10.3.1/../../../../arm-none-eabi/lib/thumb/v8-m.main+fp/hard\libg_nano.a(lib_a-init.o)
 .data          0x00000000        0x0 c:/program files (x86)/gnu arm embedded toolchain/10 2021.10/bin/../lib/gcc/arm-none-eabi/10.3.1/../../../../arm-none-eabi/lib/thumb/v8-m.main+fp/hard\libg_nano.a(lib_a-init.o)
 .bss           0x00000000        0x0 c:/program files (x86)/gnu arm embedded toolchain/10 2021.10/bin/../lib/gcc/arm-none-eabi/10.3.1/../../../../arm-none-eabi/lib/thumb/v8-m.main+fp/hard\libg_nano.a(lib_a-init.o)
 .text.__libc_init_array
                0x00000000       0x48 c:/program files (x86)/gnu arm embedded toolchain/10 2021.10/bin/../lib/gcc/arm-none-eabi/10.3.1/../../../../arm-none-eabi/lib/thumb/v8-m.main+fp/hard\libg_nano.a(lib_a-init.o)
 .debug_frame   0x00000000       0x2c c:/program files (x86)/gnu arm embedded toolchain/10 2021.10/bin/../lib/gcc/arm-none-eabi/10.3.1/../../../../arm-none-eabi/lib/thumb/v8-m.main+fp/hard\libg_nano.a(lib_a-init.o)
 .ARM.attributes
                0x00000000       0x38 c:/program files (x86)/gnu arm embedded toolchain/10 2021.10/bin/../lib/gcc/arm-none-eabi/10.3.1/../../../../arm-none-eabi/lib/thumb/v8-m.main+fp/hard\libg_nano.a(lib_a-init.o)
 .text          0x00000000        0x0 c:/program files (x86)/gnu arm embedded toolchain/10 2021.10/bin/../lib/gcc/arm-none-eabi/10.3.1/../../../../arm-none-eabi/lib/thumb/v8-m.main+fp/hard\libg_nano.a(lib_a-memcpy-stub.o)
 .data          0x00000000        0x0 c:/program files (x86)/gnu arm embedded toolchain/10 2021.10/bin/../lib/gcc/arm-none-eabi/10.3.1/../../../../arm-none-eabi/lib/thumb/v8-m.main+fp/hard\libg_nano.a(lib_a-memcpy-stub.o)
 .bss           0x00000000        0x0 c:/program files (x86)/gnu arm embedded toolchain/10 2021.10/bin/../lib/gcc/arm-none-eabi/10.3.1/../../../../arm-none-eabi/lib/thumb/v8-m.main+fp/hard\libg_nano.a(lib_a-memcpy-stub.o)
 .text          0x00000000        0x0 c:/program files (x86)/gnu arm embedded toolchain/10 2021.10/bin/../lib/gcc/arm-none-eabi/10.3.1/../../../../arm-none-eabi/lib/thumb/v8-m.main+fp/hard\libg_nano.a(lib_a-memset.o)
 .data          0x00000000        0x0 c:/program files (x86)/gnu arm embedded toolchain/10 2021.10/bin/../lib/gcc/arm-none-eabi/10.3.1/../../../../arm-none-eabi/lib/thumb/v8-m.main+fp/hard\libg_nano.a(lib_a-memset.o)
 .bss           0x00000000        0x0 c:/program files (x86)/gnu arm embedded toolchain/10 2021.10/bin/../lib/gcc/arm-none-eabi/10.3.1/../../../../arm-none-eabi/lib/thumb/v8-m.main+fp/hard\libg_nano.a(lib_a-memset.o)
 .text          0x00000000        0x0 c:/program files (x86)/gnu arm embedded toolchain/10 2021.10/bin/../lib/gcc/arm-none-eabi/10.3.1/../../../../arm-none-eabi/lib/thumb/v8-m.main+fp/hard\librdimon_nano.a(rdimon-syscalls.o)
 .data          0x00000000        0x0 c:/program files (x86)/gnu arm embedded toolchain/10 2021.10/bin/../lib/gcc/arm-none-eabi/10.3.1/../../../../arm-none-eabi/lib/thumb/v8-m.main+fp/hard\librdimon_nano.a(rdimon-syscalls.o)
 .bss           0x00000000        0x0 c:/program files (x86)/gnu arm embedded toolchain/10 2021.10/bin/../lib/gcc/arm-none-eabi/10.3.1/../../../../arm-none-eabi/lib/thumb/v8-m.main+fp/hard\librdimon_nano.a(rdimon-syscalls.o)
 .text.findslot
                0x00000000       0x34 c:/program files (x86)/gnu arm embedded toolchain/10 2021.10/bin/../lib/gcc/arm-none-eabi/10.3.1/../../../../arm-none-eabi/lib/thumb/v8-m.main+fp/hard\librdimon_nano.a(rdimon-syscalls.o)
 .text.error    0x00000000       0x1c c:/program files (x86)/gnu arm embedded toolchain/10 2021.10/bin/../lib/gcc/arm-none-eabi/10.3.1/../../../../arm-none-eabi/lib/thumb/v8-m.main+fp/hard\librdimon_nano.a(rdimon-syscalls.o)
 .text.checkerror
                0x00000000        0xa c:/program files (x86)/gnu arm embedded toolchain/10 2021.10/bin/../lib/gcc/arm-none-eabi/10.3.1/../../../../arm-none-eabi/lib/thumb/v8-m.main+fp/hard\librdimon_nano.a(rdimon-syscalls.o)
 .text._swiread
                0x00000000       0x20 c:/program files (x86)/gnu arm embedded toolchain/10 2021.10/bin/../lib/gcc/arm-none-eabi/10.3.1/../../../../arm-none-eabi/lib/thumb/v8-m.main+fp/hard\librdimon_nano.a(rdimon-syscalls.o)
 .text._read    0x00000000       0x38 c:/program files (x86)/gnu arm embedded toolchain/10 2021.10/bin/../lib/gcc/arm-none-eabi/10.3.1/../../../../arm-none-eabi/lib/thumb/v8-m.main+fp/hard\librdimon_nano.a(rdimon-syscalls.o)
 .text._swilseek
                0x00000000       0x78 c:/program files (x86)/gnu arm embedded toolchain/10 2021.10/bin/../lib/gcc/arm-none-eabi/10.3.1/../../../../arm-none-eabi/lib/thumb/v8-m.main+fp/hard\librdimon_nano.a(rdimon-syscalls.o)
 .text._lseek   0x00000000        0x4 c:/program files (x86)/gnu arm embedded toolchain/10 2021.10/bin/../lib/gcc/arm-none-eabi/10.3.1/../../../../arm-none-eabi/lib/thumb/v8-m.main+fp/hard\librdimon_nano.a(rdimon-syscalls.o)
 .text._swiwrite
                0x00000000       0x20 c:/program files (x86)/gnu arm embedded toolchain/10 2021.10/bin/../lib/gcc/arm-none-eabi/10.3.1/../../../../arm-none-eabi/lib/thumb/v8-m.main+fp/hard\librdimon_nano.a(rdimon-syscalls.o)
 .text._write   0x00000000       0x48 c:/program files (x86)/gnu arm embedded toolchain/10 2021.10/bin/../lib/gcc/arm-none-eabi/10.3.1/../../../../arm-none-eabi/lib/thumb/v8-m.main+fp/hard\librdimon_nano.a(rdimon-syscalls.o)
 .text._swiclose
                0x00000000       0x1a c:/program files (x86)/gnu arm embedded toolchain/10 2021.10/bin/../lib/gcc/arm-none-eabi/10.3.1/../../../../arm-none-eabi/lib/thumb/v8-m.main+fp/hard\librdimon_nano.a(rdimon-syscalls.o)
 .text._close   0x00000000       0x4c c:/program files (x86)/gnu arm embedded toolchain/10 2021.10/bin/../lib/gcc/arm-none-eabi/10.3.1/../../../../arm-none-eabi/lib/thumb/v8-m.main+fp/hard\librdimon_nano.a(rdimon-syscalls.o)
 .text._getpid  0x00000000        0x4 c:/program files (x86)/gnu arm embedded toolchain/10 2021.10/bin/../lib/gcc/arm-none-eabi/10.3.1/../../../../arm-none-eabi/lib/thumb/v8-m.main+fp/hard\librdimon_nano.a(rdimon-syscalls.o)
 .text._sbrk    0x00000000       0x48 c:/program files (x86)/gnu arm embedded toolchain/10 2021.10/bin/../lib/gcc/arm-none-eabi/10.3.1/../../../../arm-none-eabi/lib/thumb/v8-m.main+fp/hard\librdimon_nano.a(rdimon-syscalls.o)
 .text._swistat
                0x00000000       0x42 c:/program files (x86)/gnu arm embedded toolchain/10 2021.10/bin/../lib/gcc/arm-none-eabi/10.3.1/../../../../arm-none-eabi/lib/thumb/v8-m.main+fp/hard\librdimon_nano.a(rdimon-syscalls.o)
 .text._fstat   0x00000000       0x1c c:/program files (x86)/gnu arm embedded toolchain/10 2021.10/bin/../lib/gcc/arm-none-eabi/10.3.1/../../../../arm-none-eabi/lib/thumb/v8-m.main+fp/hard\librdimon_nano.a(rdimon-syscalls.o)
 .text._stat    0x00000000       0x3a c:/program files (x86)/gnu arm embedded toolchain/10 2021.10/bin/../lib/gcc/arm-none-eabi/10.3.1/../../../../arm-none-eabi/lib/thumb/v8-m.main+fp/hard\librdimon_nano.a(rdimon-syscalls.o)
 .text._swiopen
                0x00000000       0xb4 c:/program files (x86)/gnu arm embedded toolchain/10 2021.10/bin/../lib/gcc/arm-none-eabi/10.3.1/../../../../arm-none-eabi/lib/thumb/v8-m.main+fp/hard\librdimon_nano.a(rdimon-syscalls.o)
 .text._open    0x00000000       0x12 c:/program files (x86)/gnu arm embedded toolchain/10 2021.10/bin/../lib/gcc/arm-none-eabi/10.3.1/../../../../arm-none-eabi/lib/thumb/v8-m.main+fp/hard\librdimon_nano.a(rdimon-syscalls.o)
 .rodata._get_semihosting_exts.str1.1
                0x00000000       0x16 c:/program files (x86)/gnu arm embedded toolchain/10 2021.10/bin/../lib/gcc/arm-none-eabi/10.3.1/../../../../arm-none-eabi/lib/thumb/v8-m.main+fp/hard\librdimon_nano.a(rdimon-syscalls.o)
 .text._get_semihosting_exts
                0x00000000       0xb8 c:/program files (x86)/gnu arm embedded toolchain/10 2021.10/bin/../lib/gcc/arm-none-eabi/10.3.1/../../../../arm-none-eabi/lib/thumb/v8-m.main+fp/hard\librdimon_nano.a(rdimon-syscalls.o)
 .text.initialise_semihosting_exts
                0x00000000       0x34 c:/program files (x86)/gnu arm embedded toolchain/10 2021.10/bin/../lib/gcc/arm-none-eabi/10.3.1/../../../../arm-none-eabi/lib/thumb/v8-m.main+fp/hard\librdimon_nano.a(rdimon-syscalls.o)
 .text._has_ext_exit_extended
                0x00000000       0x18 c:/program files (x86)/gnu arm embedded toolchain/10 2021.10/bin/../lib/gcc/arm-none-eabi/10.3.1/../../../../arm-none-eabi/lib/thumb/v8-m.main+fp/hard\librdimon_nano.a(rdimon-syscalls.o)
 .text._has_ext_stdout_stderr
                0x00000000       0x18 c:/program files (x86)/gnu arm embedded toolchain/10 2021.10/bin/../lib/gcc/arm-none-eabi/10.3.1/../../../../arm-none-eabi/lib/thumb/v8-m.main+fp/hard\librdimon_nano.a(rdimon-syscalls.o)
 .rodata.initialise_monitor_handles.str1.1
                0x00000000        0x4 c:/program files (x86)/gnu arm embedded toolchain/10 2021.10/bin/../lib/gcc/arm-none-eabi/10.3.1/../../../../arm-none-eabi/lib/thumb/v8-m.main+fp/hard\librdimon_nano.a(rdimon-syscalls.o)
 .text.initialise_monitor_handles
                0x00000000       0xc0 c:/program files (x86)/gnu arm embedded toolchain/10 2021.10/bin/../lib/gcc/arm-none-eabi/10.3.1/../../../../arm-none-eabi/lib/thumb/v8-m.main+fp/hard\librdimon_nano.a(rdimon-syscalls.o)
 .text._link    0x00000000       0x10 c:/program files (x86)/gnu arm embedded toolchain/10 2021.10/bin/../lib/gcc/arm-none-eabi/10.3.1/../../../../arm-none-eabi/lib/thumb/v8-m.main+fp/hard\librdimon_nano.a(rdimon-syscalls.o)
 .text._unlink  0x00000000       0x28 c:/program files (x86)/gnu arm embedded toolchain/10 2021.10/bin/../lib/gcc/arm-none-eabi/10.3.1/../../../../arm-none-eabi/lib/thumb/v8-m.main+fp/hard\librdimon_nano.a(rdimon-syscalls.o)
 .text._gettimeofday
                0x00000000       0x28 c:/program files (x86)/gnu arm embedded toolchain/10 2021.10/bin/../lib/gcc/arm-none-eabi/10.3.1/../../../../arm-none-eabi/lib/thumb/v8-m.main+fp/hard\librdimon_nano.a(rdimon-syscalls.o)
 .text._clock   0x00000000       0x12 c:/program files (x86)/gnu arm embedded toolchain/10 2021.10/bin/../lib/gcc/arm-none-eabi/10.3.1/../../../../arm-none-eabi/lib/thumb/v8-m.main+fp/hard\librdimon_nano.a(rdimon-syscalls.o)
 .text._times   0x00000000       0x16 c:/program files (x86)/gnu arm embedded toolchain/10 2021.10/bin/../lib/gcc/arm-none-eabi/10.3.1/../../../../arm-none-eabi/lib/thumb/v8-m.main+fp/hard\librdimon_nano.a(rdimon-syscalls.o)
 .text._isatty  0x00000000       0x38 c:/program files (x86)/gnu arm embedded toolchain/10 2021.10/bin/../lib/gcc/arm-none-eabi/10.3.1/../../../../arm-none-eabi/lib/thumb/v8-m.main+fp/hard\librdimon_nano.a(rdimon-syscalls.o)
 .text._system  0x00000000       0x3c c:/program files (x86)/gnu arm embedded toolchain/10 2021.10/bin/../lib/gcc/arm-none-eabi/10.3.1/../../../../arm-none-eabi/lib/thumb/v8-m.main+fp/hard\librdimon_nano.a(rdimon-syscalls.o)
 .text._rename  0x00000000       0x36 c:/program files (x86)/gnu arm embedded toolchain/10 2021.10/bin/../lib/gcc/arm-none-eabi/10.3.1/../../../../arm-none-eabi/lib/thumb/v8-m.main+fp/hard\librdimon_nano.a(rdimon-syscalls.o)
 .bss.heap_end.0
                0x00000000        0x4 c:/program files (x86)/gnu arm embedded toolchain/10 2021.10/bin/../lib/gcc/arm-none-eabi/10.3.1/../../../../arm-none-eabi/lib/thumb/v8-m.main+fp/hard\librdimon_nano.a(rdimon-syscalls.o)
 .bss.monitor_stderr
                0x00000000        0x4 c:/program files (x86)/gnu arm embedded toolchain/10 2021.10/bin/../lib/gcc/arm-none-eabi/10.3.1/../../../../arm-none-eabi/lib/thumb/v8-m.main+fp/hard\librdimon_nano.a(rdimon-syscalls.o)
 .bss.monitor_stdin
                0x00000000        0x4 c:/program files (x86)/gnu arm embedded toolchain/10 2021.10/bin/../lib/gcc/arm-none-eabi/10.3.1/../../../../arm-none-eabi/lib/thumb/v8-m.main+fp/hard\librdimon_nano.a(rdimon-syscalls.o)
 .bss.monitor_stdout
                0x00000000        0x4 c:/program files (x86)/gnu arm embedded toolchain/10 2021.10/bin/../lib/gcc/arm-none-eabi/10.3.1/../../../../arm-none-eabi/lib/thumb/v8-m.main+fp/hard\librdimon_nano.a(rdimon-syscalls.o)
 .bss.openfiles
                0x00000000       0xa0 c:/program files (x86)/gnu arm embedded toolchain/10 2021.10/bin/../lib/gcc/arm-none-eabi/10.3.1/../../../../arm-none-eabi/lib/thumb/v8-m.main+fp/hard\librdimon_nano.a(rdimon-syscalls.o)
 .data.__heap_limit
                0x00000000        0x4 c:/program files (x86)/gnu arm embedded toolchain/10 2021.10/bin/../lib/gcc/arm-none-eabi/10.3.1/../../../../arm-none-eabi/lib/thumb/v8-m.main+fp/hard\librdimon_nano.a(rdimon-syscalls.o)
 .data.supports_ext_exit_extended
                0x00000000        0x4 c:/program files (x86)/gnu arm embedded toolchain/10 2021.10/bin/../lib/gcc/arm-none-eabi/10.3.1/../../../../arm-none-eabi/lib/thumb/v8-m.main+fp/hard\librdimon_nano.a(rdimon-syscalls.o)
 .data.supports_ext_stdout_stderr
                0x00000000        0x4 c:/program files (x86)/gnu arm embedded toolchain/10 2021.10/bin/../lib/gcc/arm-none-eabi/10.3.1/../../../../arm-none-eabi/lib/thumb/v8-m.main+fp/hard\librdimon_nano.a(rdimon-syscalls.o)
 .debug_frame   0x00000000      0x3a0 c:/program files (x86)/gnu arm embedded toolchain/10 2021.10/bin/../lib/gcc/arm-none-eabi/10.3.1/../../../../arm-none-eabi/lib/thumb/v8-m.main+fp/hard\librdimon_nano.a(rdimon-syscalls.o)
 .ARM.attributes
                0x00000000       0x38 c:/program files (x86)/gnu arm embedded toolchain/10 2021.10/bin/../lib/gcc/arm-none-eabi/10.3.1/../../../../arm-none-eabi/lib/thumb/v8-m.main+fp/hard\librdimon_nano.a(rdimon-syscalls.o)
 .text          0x00000000        0x0 c:/program files (x86)/gnu arm embedded toolchain/10 2021.10/bin/../lib/gcc/arm-none-eabi/10.3.1/../../../../arm-none-eabi/lib/thumb/v8-m.main+fp/hard\librdimon_nano.a(rdimon-_exit.o)
 .data          0x00000000        0x0 c:/program files (x86)/gnu arm embedded toolchain/10 2021.10/bin/../lib/gcc/arm-none-eabi/10.3.1/../../../../arm-none-eabi/lib/thumb/v8-m.main+fp/hard\librdimon_nano.a(rdimon-_exit.o)
 .bss           0x00000000        0x0 c:/program files (x86)/gnu arm embedded toolchain/10 2021.10/bin/../lib/gcc/arm-none-eabi/10.3.1/../../../../arm-none-eabi/lib/thumb/v8-m.main+fp/hard\librdimon_nano.a(rdimon-_exit.o)
 .text._exit    0x00000000       0x14 c:/program files (x86)/gnu arm embedded toolchain/10 2021.10/bin/../lib/gcc/arm-none-eabi/10.3.1/../../../../arm-none-eabi/lib/thumb/v8-m.main+fp/hard\librdimon_nano.a(rdimon-_exit.o)
 .debug_frame   0x00000000       0x28 c:/program files (x86)/gnu arm embedded toolchain/10 2021.10/bin/../lib/gcc/arm-none-eabi/10.3.1/../../../../arm-none-eabi/lib/thumb/v8-m.main+fp/hard\librdimon_nano.a(rdimon-_exit.o)
 .ARM.attributes
                0x00000000       0x38 c:/program files (x86)/gnu arm embedded toolchain/10 2021.10/bin/../lib/gcc/arm-none-eabi/10.3.1/../../../../arm-none-eabi/lib/thumb/v8-m.main+fp/hard\librdimon_nano.a(rdimon-_exit.o)
 .text          0x00000000        0x0 c:/program files (x86)/gnu arm embedded toolchain/10 2021.10/bin/../lib/gcc/arm-none-eabi/10.3.1/../../../../arm-none-eabi/lib/thumb/v8-m.main+fp/hard\librdimon_nano.a(rdimon-_kill.o)
 .data          0x00000000        0x0 c:/program files (x86)/gnu arm embedded toolchain/10 2021.10/bin/../lib/gcc/arm-none-eabi/10.3.1/../../../../arm-none-eabi/lib/thumb/v8-m.main+fp/hard\librdimon_nano.a(rdimon-_kill.o)
 .bss           0x00000000        0x0 c:/program files (x86)/gnu arm embedded toolchain/10 2021.10/bin/../lib/gcc/arm-none-eabi/10.3.1/../../../../arm-none-eabi/lib/thumb/v8-m.main+fp/hard\librdimon_nano.a(rdimon-_kill.o)
 .text._kill_shared
                0x00000000       0x26 c:/program files (x86)/gnu arm embedded toolchain/10 2021.10/bin/../lib/gcc/arm-none-eabi/10.3.1/../../../../arm-none-eabi/lib/thumb/v8-m.main+fp/hard\librdimon_nano.a(rdimon-_kill.o)
 .text._kill    0x00000000       0x18 c:/program files (x86)/gnu arm embedded toolchain/10 2021.10/bin/../lib/gcc/arm-none-eabi/10.3.1/../../../../arm-none-eabi/lib/thumb/v8-m.main+fp/hard\librdimon_nano.a(rdimon-_kill.o)
 .debug_frame   0x00000000       0x40 c:/program files (x86)/gnu arm embedded toolchain/10 2021.10/bin/../lib/gcc/arm-none-eabi/10.3.1/../../../../arm-none-eabi/lib/thumb/v8-m.main+fp/hard\librdimon_nano.a(rdimon-_kill.o)
 .ARM.attributes
                0x00000000       0x38 c:/program files (x86)/gnu arm embedded toolchain/10 2021.10/bin/../lib/gcc/arm-none-eabi/10.3.1/../../../../arm-none-eabi/lib/thumb/v8-m.main+fp/hard\librdimon_nano.a(rdimon-_kill.o)
 .text          0x00000000        0x0 c:/program files (x86)/gnu arm embedded toolchain/10 2021.10/bin/../lib/gcc/arm-none-eabi/10.3.1/../../../../arm-none-eabi/lib/thumb/v8-m.main+fp/hard\libc_nano.a(lib_a-findfp.o)
 .data          0x00000000        0x0 c:/program files (x86)/gnu arm embedded toolchain/10 2021.10/bin/../lib/gcc/arm-none-eabi/10.3.1/../../../../arm-none-eabi/lib/thumb/v8-m.main+fp/hard\libc_nano.a(lib_a-findfp.o)
 .bss           0x00000000        0x0 c:/program files (x86)/gnu arm embedded toolchain/10 2021.10/bin/../lib/gcc/arm-none-eabi/10.3.1/../../../../arm-none-eabi/lib/thumb/v8-m.main+fp/hard\libc_nano.a(lib_a-findfp.o)
 .text.std      0x00000000       0x48 c:/program files (x86)/gnu arm embedded toolchain/10 2021.10/bin/../lib/gcc/arm-none-eabi/10.3.1/../../../../arm-none-eabi/lib/thumb/v8-m.main+fp/hard\libc_nano.a(lib_a-findfp.o)
 .text._cleanup_r
                0x00000000        0xc c:/program files (x86)/gnu arm embedded toolchain/10 2021.10/bin/../lib/gcc/arm-none-eabi/10.3.1/../../../../arm-none-eabi/lib/thumb/v8-m.main+fp/hard\libc_nano.a(lib_a-findfp.o)
 .text.__fp_lock
                0x00000000       0x18 c:/program files (x86)/gnu arm embedded toolchain/10 2021.10/bin/../lib/gcc/arm-none-eabi/10.3.1/../../../../arm-none-eabi/lib/thumb/v8-m.main+fp/hard\libc_nano.a(lib_a-findfp.o)
 .text.__fp_unlock
                0x00000000       0x18 c:/program files (x86)/gnu arm embedded toolchain/10 2021.10/bin/../lib/gcc/arm-none-eabi/10.3.1/../../../../arm-none-eabi/lib/thumb/v8-m.main+fp/hard\libc_nano.a(lib_a-findfp.o)
 .text.__sfmoreglue
                0x00000000       0x2c c:/program files (x86)/gnu arm embedded toolchain/10 2021.10/bin/../lib/gcc/arm-none-eabi/10.3.1/../../../../arm-none-eabi/lib/thumb/v8-m.main+fp/hard\libc_nano.a(lib_a-findfp.o)
 .text._cleanup
                0x00000000        0xc c:/program files (x86)/gnu arm embedded toolchain/10 2021.10/bin/../lib/gcc/arm-none-eabi/10.3.1/../../../../arm-none-eabi/lib/thumb/v8-m.main+fp/hard\libc_nano.a(lib_a-findfp.o)
 .text.__sfp_lock_acquire
                0x00000000        0xc c:/program files (x86)/gnu arm embedded toolchain/10 2021.10/bin/../lib/gcc/arm-none-eabi/10.3.1/../../../../arm-none-eabi/lib/thumb/v8-m.main+fp/hard\libc_nano.a(lib_a-findfp.o)
 .text.__sfp_lock_release
                0x00000000        0xc c:/program files (x86)/gnu arm embedded toolchain/10 2021.10/bin/../lib/gcc/arm-none-eabi/10.3.1/../../../../arm-none-eabi/lib/thumb/v8-m.main+fp/hard\libc_nano.a(lib_a-findfp.o)
 .text.__sinit_lock_acquire
                0x00000000        0xc c:/program files (x86)/gnu arm embedded toolchain/10 2021.10/bin/../lib/gcc/arm-none-eabi/10.3.1/../../../../arm-none-eabi/lib/thumb/v8-m.main+fp/hard\libc_nano.a(lib_a-findfp.o)
 .text.__sinit_lock_release
                0x00000000        0xc c:/program files (x86)/gnu arm embedded toolchain/10 2021.10/bin/../lib/gcc/arm-none-eabi/10.3.1/../../../../arm-none-eabi/lib/thumb/v8-m.main+fp/hard\libc_nano.a(lib_a-findfp.o)
 .text.__sinit  0x00000000       0x70 c:/program files (x86)/gnu arm embedded toolchain/10 2021.10/bin/../lib/gcc/arm-none-eabi/10.3.1/../../../../arm-none-eabi/lib/thumb/v8-m.main+fp/hard\libc_nano.a(lib_a-findfp.o)
 .text.__sfp    0x00000000       0x8c c:/program files (x86)/gnu arm embedded toolchain/10 2021.10/bin/../lib/gcc/arm-none-eabi/10.3.1/../../../../arm-none-eabi/lib/thumb/v8-m.main+fp/hard\libc_nano.a(lib_a-findfp.o)
 .text.__fp_lock_all
                0x00000000       0x1c c:/program files (x86)/gnu arm embedded toolchain/10 2021.10/bin/../lib/gcc/arm-none-eabi/10.3.1/../../../../arm-none-eabi/lib/thumb/v8-m.main+fp/hard\libc_nano.a(lib_a-findfp.o)
 .text.__fp_unlock_all
                0x00000000       0x1c c:/program files (x86)/gnu arm embedded toolchain/10 2021.10/bin/../lib/gcc/arm-none-eabi/10.3.1/../../../../arm-none-eabi/lib/thumb/v8-m.main+fp/hard\libc_nano.a(lib_a-findfp.o)
 .text          0x00000000        0x0 c:/program files (x86)/gnu arm embedded toolchain/10 2021.10/bin/../lib/gcc/arm-none-eabi/10.3.1/../../../../arm-none-eabi/lib/thumb/v8-m.main+fp/hard\libc_nano.a(lib_a-fwalk.o)
 .data          0x00000000        0x0 c:/program files (x86)/gnu arm embedded toolchain/10 2021.10/bin/../lib/gcc/arm-none-eabi/10.3.1/../../../../arm-none-eabi/lib/thumb/v8-m.main+fp/hard\libc_nano.a(lib_a-fwalk.o)
 .bss           0x00000000        0x0 c:/program files (x86)/gnu arm embedded toolchain/10 2021.10/bin/../lib/gcc/arm-none-eabi/10.3.1/../../../../arm-none-eabi/lib/thumb/v8-m.main+fp/hard\libc_nano.a(lib_a-fwalk.o)
 .text._fwalk   0x00000000       0x3a c:/program files (x86)/gnu arm embedded toolchain/10 2021.10/bin/../lib/gcc/arm-none-eabi/10.3.1/../../../../arm-none-eabi/lib/thumb/v8-m.main+fp/hard\libc_nano.a(lib_a-fwalk.o)
 .text._fwalk_reent
                0x00000000       0x3e c:/program files (x86)/gnu arm embedded toolchain/10 2021.10/bin/../lib/gcc/arm-none-eabi/10.3.1/../../../../arm-none-eabi/lib/thumb/v8-m.main+fp/hard\libc_nano.a(lib_a-fwalk.o)
 .debug_frame   0x00000000       0x54 c:/program files (x86)/gnu arm embedded toolchain/10 2021.10/bin/../lib/gcc/arm-none-eabi/10.3.1/../../../../arm-none-eabi/lib/thumb/v8-m.main+fp/hard\libc_nano.a(lib_a-fwalk.o)
 .ARM.attributes
                0x00000000       0x38 c:/program files (x86)/gnu arm embedded toolchain/10 2021.10/bin/../lib/gcc/arm-none-eabi/10.3.1/../../../../arm-none-eabi/lib/thumb/v8-m.main+fp/hard\libc_nano.a(lib_a-fwalk.o)
 .text          0x00000000        0x0 c:/program files (x86)/gnu arm embedded toolchain/10 2021.10/bin/../lib/gcc/arm-none-eabi/10.3.1/../../../../arm-none-eabi/lib/thumb/v8-m.main+fp/hard\libc_nano.a(lib_a-lock.o)
 .data          0x00000000        0x0 c:/program files (x86)/gnu arm embedded toolchain/10 2021.10/bin/../lib/gcc/arm-none-eabi/10.3.1/../../../../arm-none-eabi/lib/thumb/v8-m.main+fp/hard\libc_nano.a(lib_a-lock.o)
 .bss           0x00000000        0x0 c:/program files (x86)/gnu arm embedded toolchain/10 2021.10/bin/../lib/gcc/arm-none-eabi/10.3.1/../../../../arm-none-eabi/lib/thumb/v8-m.main+fp/hard\libc_nano.a(lib_a-lock.o)
 .text.__retarget_lock_init
                0x00000000        0x2 c:/program files (x86)/gnu arm embedded toolchain/10 2021.10/bin/../lib/gcc/arm-none-eabi/10.3.1/../../../../arm-none-eabi/lib/thumb/v8-m.main+fp/hard\libc_nano.a(lib_a-lock.o)
 .text.__retarget_lock_init_recursive
                0x00000000        0x2 c:/program files (x86)/gnu arm embedded toolchain/10 2021.10/bin/../lib/gcc/arm-none-eabi/10.3.1/../../../../arm-none-eabi/lib/thumb/v8-m.main+fp/hard\libc_nano.a(lib_a-lock.o)
 .text.__retarget_lock_close
                0x00000000        0x2 c:/program files (x86)/gnu arm embedded toolchain/10 2021.10/bin/../lib/gcc/arm-none-eabi/10.3.1/../../../../arm-none-eabi/lib/thumb/v8-m.main+fp/hard\libc_nano.a(lib_a-lock.o)
 .text.__retarget_lock_close_recursive
                0x00000000        0x2 c:/program files (x86)/gnu arm embedded toolchain/10 2021.10/bin/../lib/gcc/arm-none-eabi/10.3.1/../../../../arm-none-eabi/lib/thumb/v8-m.main+fp/hard\libc_nano.a(lib_a-lock.o)
 .text.__retarget_lock_acquire
                0x00000000        0x2 c:/program files (x86)/gnu arm embedded toolchain/10 2021.10/bin/../lib/gcc/arm-none-eabi/10.3.1/../../../../arm-none-eabi/lib/thumb/v8-m.main+fp/hard\libc_nano.a(lib_a-lock.o)
 .text.__retarget_lock_acquire_recursive
                0x00000000        0x2 c:/program files (x86)/gnu arm embedded toolchain/10 2021.10/bin/../lib/gcc/arm-none-eabi/10.3.1/../../../../arm-none-eabi/lib/thumb/v8-m.main+fp/hard\libc_nano.a(lib_a-lock.o)
 .text.__retarget_lock_try_acquire
                0x00000000        0x4 c:/program files (x86)/gnu arm embedded toolchain/10 2021.10/bin/../lib/gcc/arm-none-eabi/10.3.1/../../../../arm-none-eabi/lib/thumb/v8-m.main+fp/hard\libc_nano.a(lib_a-lock.o)
 .text.__retarget_lock_try_acquire_recursive
                0x00000000        0x4 c:/program files (x86)/gnu arm embedded toolchain/10 2021.10/bin/../lib/gcc/arm-none-eabi/10.3.1/../../../../arm-none-eabi/lib/thumb/v8-m.main+fp/hard\libc_nano.a(lib_a-lock.o)
 .text.__retarget_lock_release
                0x00000000        0x2 c:/program files (x86)/gnu arm embedded toolchain/10 2021.10/bin/../lib/gcc/arm-none-eabi/10.3.1/../../../../arm-none-eabi/lib/thumb/v8-m.main+fp/hard\libc_nano.a(lib_a-lock.o)
 .text.__retarget_lock_release_recursive
                0x00000000        0x2 c:/program files (x86)/gnu arm embedded toolchain/10 2021.10/bin/../lib/gcc/arm-none-eabi/10.3.1/../../../../arm-none-eabi/lib/thumb/v8-m.main+fp/hard\libc_nano.a(lib_a-lock.o)
 .bss.__lock___arc4random_mutex
                0x00000000        0x1 c:/program files (x86)/gnu arm embedded toolchain/10 2021.10/bin/../lib/gcc/arm-none-eabi/10.3.1/../../../../arm-none-eabi/lib/thumb/v8-m.main+fp/hard\libc_nano.a(lib_a-lock.o)
 .bss.__lock___at_quick_exit_mutex
                0x00000000        0x1 c:/program files (x86)/gnu arm embedded toolchain/10 2021.10/bin/../lib/gcc/arm-none-eabi/10.3.1/../../../../arm-none-eabi/lib/thumb/v8-m.main+fp/hard\libc_nano.a(lib_a-lock.o)
 .bss.__lock___atexit_recursive_mutex
                0x00000000        0x1 c:/program files (x86)/gnu arm embedded toolchain/10 2021.10/bin/../lib/gcc/arm-none-eabi/10.3.1/../../../../arm-none-eabi/lib/thumb/v8-m.main+fp/hard\libc_nano.a(lib_a-lock.o)
 .bss.__lock___dd_hash_mutex
                0x00000000        0x1 c:/program files (x86)/gnu arm embedded toolchain/10 2021.10/bin/../lib/gcc/arm-none-eabi/10.3.1/../../../../arm-none-eabi/lib/thumb/v8-m.main+fp/hard\libc_nano.a(lib_a-lock.o)
 .bss.__lock___env_recursive_mutex
                0x00000000        0x1 c:/program files (x86)/gnu arm embedded toolchain/10 2021.10/bin/../lib/gcc/arm-none-eabi/10.3.1/../../../../arm-none-eabi/lib/thumb/v8-m.main+fp/hard\libc_nano.a(lib_a-lock.o)
 .bss.__lock___malloc_recursive_mutex
                0x00000000        0x1 c:/program files (x86)/gnu arm embedded toolchain/10 2021.10/bin/../lib/gcc/arm-none-eabi/10.3.1/../../../../arm-none-eabi/lib/thumb/v8-m.main+fp/hard\libc_nano.a(lib_a-lock.o)
 .bss.__lock___sfp_recursive_mutex
                0x00000000        0x1 c:/program files (x86)/gnu arm embedded toolchain/10 2021.10/bin/../lib/gcc/arm-none-eabi/10.3.1/../../../../arm-none-eabi/lib/thumb/v8-m.main+fp/hard\libc_nano.a(lib_a-lock.o)
 .bss.__lock___sinit_recursive_mutex
                0x00000000        0x1 c:/program files (x86)/gnu arm embedded toolchain/10 2021.10/bin/../lib/gcc/arm-none-eabi/10.3.1/../../../../arm-none-eabi/lib/thumb/v8-m.main+fp/hard\libc_nano.a(lib_a-lock.o)
 .bss.__lock___tz_mutex
                0x00000000        0x1 c:/program files (x86)/gnu arm embedded toolchain/10 2021.10/bin/../lib/gcc/arm-none-eabi/10.3.1/../../../../arm-none-eabi/lib/thumb/v8-m.main+fp/hard\libc_nano.a(lib_a-lock.o)
 .debug_frame   0x00000000       0xb0 c:/program files (x86)/gnu arm embedded toolchain/10 2021.10/bin/../lib/gcc/arm-none-eabi/10.3.1/../../../../arm-none-eabi/lib/thumb/v8-m.main+fp/hard\libc_nano.a(lib_a-lock.o)
 .ARM.attributes
                0x00000000       0x38 c:/program files (x86)/gnu arm embedded toolchain/10 2021.10/bin/../lib/gcc/arm-none-eabi/10.3.1/../../../../arm-none-eabi/lib/thumb/v8-m.main+fp/hard\libc_nano.a(lib_a-lock.o)
 .text          0x00000000        0x0 c:/program files (x86)/gnu arm embedded toolchain/10 2021.10/bin/../lib/gcc/arm-none-eabi/10.3.1/../../../../arm-none-eabi/lib/thumb/v8-m.main+fp/hard\libc_nano.a(lib_a-nano-mallocr.o)
 .data          0x00000000        0x0 c:/program files (x86)/gnu arm embedded toolchain/10 2021.10/bin/../lib/gcc/arm-none-eabi/10.3.1/../../../../arm-none-eabi/lib/thumb/v8-m.main+fp/hard\libc_nano.a(lib_a-nano-mallocr.o)
 .bss           0x00000000        0x0 c:/program files (x86)/gnu arm embedded toolchain/10 2021.10/bin/../lib/gcc/arm-none-eabi/10.3.1/../../../../arm-none-eabi/lib/thumb/v8-m.main+fp/hard\libc_nano.a(lib_a-nano-mallocr.o)
 .text.sbrk_aligned
                0x00000000       0x40 c:/program files (x86)/gnu arm embedded toolchain/10 2021.10/bin/../lib/gcc/arm-none-eabi/10.3.1/../../../../arm-none-eabi/lib/thumb/v8-m.main+fp/hard\libc_nano.a(lib_a-nano-mallocr.o)
 .text._malloc_r
                0x00000000       0xe8 c:/program files (x86)/gnu arm embedded toolchain/10 2021.10/bin/../lib/gcc/arm-none-eabi/10.3.1/../../../../arm-none-eabi/lib/thumb/v8-m.main+fp/hard\libc_nano.a(lib_a-nano-mallocr.o)
 .bss.__malloc_free_list
                0x00000000        0x4 c:/program files (x86)/gnu arm embedded toolchain/10 2021.10/bin/../lib/gcc/arm-none-eabi/10.3.1/../../../../arm-none-eabi/lib/thumb/v8-m.main+fp/hard\libc_nano.a(lib_a-nano-mallocr.o)
 .bss.__malloc_sbrk_start
                0x00000000        0x4 c:/program files (x86)/gnu arm embedded toolchain/10 2021.10/bin/../lib/gcc/arm-none-eabi/10.3.1/../../../../arm-none-eabi/lib/thumb/v8-m.main+fp/hard\libc_nano.a(lib_a-nano-mallocr.o)
 .debug_frame   0x00000000       0x4c c:/program files (x86)/gnu arm embedded toolchain/10 2021.10/bin/../lib/gcc/arm-none-eabi/10.3.1/../../../../arm-none-eabi/lib/thumb/v8-m.main+fp/hard\libc_nano.a(lib_a-nano-mallocr.o)
 .ARM.attributes
                0x00000000       0x38 c:/program files (x86)/gnu arm embedded toolchain/10 2021.10/bin/../lib/gcc/arm-none-eabi/10.3.1/../../../../arm-none-eabi/lib/thumb/v8-m.main+fp/hard\libc_nano.a(lib_a-nano-mallocr.o)
 .text          0x00000000        0x0 c:/program files (x86)/gnu arm embedded toolchain/10 2021.10/bin/../lib/gcc/arm-none-eabi/10.3.1/../../../../arm-none-eabi/lib/thumb/v8-m.main+fp/hard\libc_nano.a(lib_a-sbrkr.o)
 .data          0x00000000        0x0 c:/program files (x86)/gnu arm embedded toolchain/10 2021.10/bin/../lib/gcc/arm-none-eabi/10.3.1/../../../../arm-none-eabi/lib/thumb/v8-m.main+fp/hard\libc_nano.a(lib_a-sbrkr.o)
 .bss           0x00000000        0x0 c:/program files (x86)/gnu arm embedded toolchain/10 2021.10/bin/../lib/gcc/arm-none-eabi/10.3.1/../../../../arm-none-eabi/lib/thumb/v8-m.main+fp/hard\libc_nano.a(lib_a-sbrkr.o)
 .text._sbrk_r  0x00000000       0x20 c:/program files (x86)/gnu arm embedded toolchain/10 2021.10/bin/../lib/gcc/arm-none-eabi/10.3.1/../../../../arm-none-eabi/lib/thumb/v8-m.main+fp/hard\libc_nano.a(lib_a-sbrkr.o)
 .debug_frame   0x00000000       0x2c c:/program files (x86)/gnu arm embedded toolchain/10 2021.10/bin/../lib/gcc/arm-none-eabi/10.3.1/../../../../arm-none-eabi/lib/thumb/v8-m.main+fp/hard\libc_nano.a(lib_a-sbrkr.o)
 .ARM.attributes
                0x00000000       0x38 c:/program files (x86)/gnu arm embedded toolchain/10 2021.10/bin/../lib/gcc/arm-none-eabi/10.3.1/../../../../arm-none-eabi/lib/thumb/v8-m.main+fp/hard\libc_nano.a(lib_a-sbrkr.o)
 .text          0x00000000        0x0 c:/program files (x86)/gnu arm embedded toolchain/10 2021.10/bin/../lib/gcc/arm-none-eabi/10.3.1/../../../../arm-none-eabi/lib/thumb/v8-m.main+fp/hard\libc_nano.a(lib_a-stdio.o)
 .data          0x00000000        0x0 c:/program files (x86)/gnu arm embedded toolchain/10 2021.10/bin/../lib/gcc/arm-none-eabi/10.3.1/../../../../arm-none-eabi/lib/thumb/v8-m.main+fp/hard\libc_nano.a(lib_a-stdio.o)
 .bss           0x00000000        0x0 c:/program files (x86)/gnu arm embedded toolchain/10 2021.10/bin/../lib/gcc/arm-none-eabi/10.3.1/../../../../arm-none-eabi/lib/thumb/v8-m.main+fp/hard\libc_nano.a(lib_a-stdio.o)
 .text.__sread  0x00000000       0x22 c:/program files (x86)/gnu arm embedded toolchain/10 2021.10/bin/../lib/gcc/arm-none-eabi/10.3.1/../../../../arm-none-eabi/lib/thumb/v8-m.main+fp/hard\libc_nano.a(lib_a-stdio.o)
 .text.__seofread
                0x00000000        0x4 c:/program files (x86)/gnu arm embedded toolchain/10 2021.10/bin/../lib/gcc/arm-none-eabi/10.3.1/../../../../arm-none-eabi/lib/thumb/v8-m.main+fp/hard\libc_nano.a(lib_a-stdio.o)
 .text.__swrite
                0x00000000       0x38 c:/program files (x86)/gnu arm embedded toolchain/10 2021.10/bin/../lib/gcc/arm-none-eabi/10.3.1/../../../../arm-none-eabi/lib/thumb/v8-m.main+fp/hard\libc_nano.a(lib_a-stdio.o)
 .text.__sseek  0x00000000       0x24 c:/program files (x86)/gnu arm embedded toolchain/10 2021.10/bin/../lib/gcc/arm-none-eabi/10.3.1/../../../../arm-none-eabi/lib/thumb/v8-m.main+fp/hard\libc_nano.a(lib_a-stdio.o)
 .text.__sclose
                0x00000000        0x8 c:/program files (x86)/gnu arm embedded toolchain/10 2021.10/bin/../lib/gcc/arm-none-eabi/10.3.1/../../../../arm-none-eabi/lib/thumb/v8-m.main+fp/hard\libc_nano.a(lib_a-stdio.o)
 .debug_frame   0x00000000       0x88 c:/program files (x86)/gnu arm embedded toolchain/10 2021.10/bin/../lib/gcc/arm-none-eabi/10.3.1/../../../../arm-none-eabi/lib/thumb/v8-m.main+fp/hard\libc_nano.a(lib_a-stdio.o)
 .ARM.attributes
                0x00000000       0x38 c:/program files (x86)/gnu arm embedded toolchain/10 2021.10/bin/../lib/gcc/arm-none-eabi/10.3.1/../../../../arm-none-eabi/lib/thumb/v8-m.main+fp/hard\libc_nano.a(lib_a-stdio.o)
 .text          0x00000000       0x10 c:/program files (x86)/gnu arm embedded toolchain/10 2021.10/bin/../lib/gcc/arm-none-eabi/10.3.1/../../../../arm-none-eabi/lib/thumb/v8-m.main+fp/hard\libc_nano.a(lib_a-strlen.o)
 .data          0x00000000        0x0 c:/program files (x86)/gnu arm embedded toolchain/10 2021.10/bin/../lib/gcc/arm-none-eabi/10.3.1/../../../../arm-none-eabi/lib/thumb/v8-m.main+fp/hard\libc_nano.a(lib_a-strlen.o)
 .bss           0x00000000        0x0 c:/program files (x86)/gnu arm embedded toolchain/10 2021.10/bin/../lib/gcc/arm-none-eabi/10.3.1/../../../../arm-none-eabi/lib/thumb/v8-m.main+fp/hard\libc_nano.a(lib_a-strlen.o)
 .ARM.attributes
                0x00000000       0x17 c:/program files (x86)/gnu arm embedded toolchain/10 2021.10/bin/../lib/gcc/arm-none-eabi/10.3.1/../../../../arm-none-eabi/lib/thumb/v8-m.main+fp/hard\libc_nano.a(lib_a-strlen.o)
 .text          0x00000000        0x0 c:/program files (x86)/gnu arm embedded toolchain/10 2021.10/bin/../lib/gcc/arm-none-eabi/10.3.1/../../../../arm-none-eabi/lib/thumb/v8-m.main+fp/hard\libc_nano.a(lib_a-writer.o)
 .data          0x00000000        0x0 c:/program files (x86)/gnu arm embedded toolchain/10 2021.10/bin/../lib/gcc/arm-none-eabi/10.3.1/../../../../arm-none-eabi/lib/thumb/v8-m.main+fp/hard\libc_nano.a(lib_a-writer.o)
 .bss           0x00000000        0x0 c:/program files (x86)/gnu arm embedded toolchain/10 2021.10/bin/../lib/gcc/arm-none-eabi/10.3.1/../../../../arm-none-eabi/lib/thumb/v8-m.main+fp/hard\libc_nano.a(lib_a-writer.o)
 .text._write_r
                0x00000000       0x24 c:/program files (x86)/gnu arm embedded toolchain/10 2021.10/bin/../lib/gcc/arm-none-eabi/10.3.1/../../../../arm-none-eabi/lib/thumb/v8-m.main+fp/hard\libc_nano.a(lib_a-writer.o)
 .debug_frame   0x00000000       0x2c c:/program files (x86)/gnu arm embedded toolchain/10 2021.10/bin/../lib/gcc/arm-none-eabi/10.3.1/../../../../arm-none-eabi/lib/thumb/v8-m.main+fp/hard\libc_nano.a(lib_a-writer.o)
 .ARM.attributes
                0x00000000       0x38 c:/program files (x86)/gnu arm embedded toolchain/10 2021.10/bin/../lib/gcc/arm-none-eabi/10.3.1/../../../../arm-none-eabi/lib/thumb/v8-m.main+fp/hard\libc_nano.a(lib_a-writer.o)
 .text          0x00000000        0x0 c:/program files (x86)/gnu arm embedded toolchain/10 2021.10/bin/../lib/gcc/arm-none-eabi/10.3.1/../../../../arm-none-eabi/lib/thumb/v8-m.main+fp/hard\libc_nano.a(lib_a-closer.o)
 .data          0x00000000        0x0 c:/program files (x86)/gnu arm embedded toolchain/10 2021.10/bin/../lib/gcc/arm-none-eabi/10.3.1/../../../../arm-none-eabi/lib/thumb/v8-m.main+fp/hard\libc_nano.a(lib_a-closer.o)
 .bss           0x00000000        0x0 c:/program files (x86)/gnu arm embedded toolchain/10 2021.10/bin/../lib/gcc/arm-none-eabi/10.3.1/../../../../arm-none-eabi/lib/thumb/v8-m.main+fp/hard\libc_nano.a(lib_a-closer.o)
 .text._close_r
                0x00000000       0x20 c:/program files (x86)/gnu arm embedded toolchain/10 2021.10/bin/../lib/gcc/arm-none-eabi/10.3.1/../../../../arm-none-eabi/lib/thumb/v8-m.main+fp/hard\libc_nano.a(lib_a-closer.o)
 .debug_frame   0x00000000       0x2c c:/program files (x86)/gnu arm embedded toolchain/10 2021.10/bin/../lib/gcc/arm-none-eabi/10.3.1/../../../../arm-none-eabi/lib/thumb/v8-m.main+fp/hard\libc_nano.a(lib_a-closer.o)
 .ARM.attributes
                0x00000000       0x38 c:/program files (x86)/gnu arm embedded toolchain/10 2021.10/bin/../lib/gcc/arm-none-eabi/10.3.1/../../../../arm-none-eabi/lib/thumb/v8-m.main+fp/hard\libc_nano.a(lib_a-closer.o)
 .text          0x00000000        0x0 c:/program files (x86)/gnu arm embedded toolchain/10 2021.10/bin/../lib/gcc/arm-none-eabi/10.3.1/../../../../arm-none-eabi/lib/thumb/v8-m.main+fp/hard\libc_nano.a(lib_a-fflush.o)
 .data          0x00000000        0x0 c:/program files (x86)/gnu arm embedded toolchain/10 2021.10/bin/../lib/gcc/arm-none-eabi/10.3.1/../../../../arm-none-eabi/lib/thumb/v8-m.main+fp/hard\libc_nano.a(lib_a-fflush.o)
 .bss           0x00000000        0x0 c:/program files (x86)/gnu arm embedded toolchain/10 2021.10/bin/../lib/gcc/arm-none-eabi/10.3.1/../../../../arm-none-eabi/lib/thumb/v8-m.main+fp/hard\libc_nano.a(lib_a-fflush.o)
 .text.__sflush_r
                0x00000000      0x108 c:/program files (x86)/gnu arm embedded toolchain/10 2021.10/bin/../lib/gcc/arm-none-eabi/10.3.1/../../../../arm-none-eabi/lib/thumb/v8-m.main+fp/hard\libc_nano.a(lib_a-fflush.o)
 .text._fflush_r
                0x00000000       0x78 c:/program files (x86)/gnu arm embedded toolchain/10 2021.10/bin/../lib/gcc/arm-none-eabi/10.3.1/../../../../arm-none-eabi/lib/thumb/v8-m.main+fp/hard\libc_nano.a(lib_a-fflush.o)
 .text.fflush   0x00000000       0x24 c:/program files (x86)/gnu arm embedded toolchain/10 2021.10/bin/../lib/gcc/arm-none-eabi/10.3.1/../../../../arm-none-eabi/lib/thumb/v8-m.main+fp/hard\libc_nano.a(lib_a-fflush.o)
 .debug_frame   0x00000000       0x5c c:/program files (x86)/gnu arm embedded toolchain/10 2021.10/bin/../lib/gcc/arm-none-eabi/10.3.1/../../../../arm-none-eabi/lib/thumb/v8-m.main+fp/hard\libc_nano.a(lib_a-fflush.o)
 .ARM.attributes
                0x00000000       0x38 c:/program files (x86)/gnu arm embedded toolchain/10 2021.10/bin/../lib/gcc/arm-none-eabi/10.3.1/../../../../arm-none-eabi/lib/thumb/v8-m.main+fp/hard\libc_nano.a(lib_a-fflush.o)
 .text          0x00000000        0x0 c:/program files (x86)/gnu arm embedded toolchain/10 2021.10/bin/../lib/gcc/arm-none-eabi/10.3.1/../../../../arm-none-eabi/lib/thumb/v8-m.main+fp/hard\libc_nano.a(lib_a-lseekr.o)
 .data          0x00000000        0x0 c:/program files (x86)/gnu arm embedded toolchain/10 2021.10/bin/../lib/gcc/arm-none-eabi/10.3.1/../../../../arm-none-eabi/lib/thumb/v8-m.main+fp/hard\libc_nano.a(lib_a-lseekr.o)
 .bss           0x00000000        0x0 c:/program files (x86)/gnu arm embedded toolchain/10 2021.10/bin/../lib/gcc/arm-none-eabi/10.3.1/../../../../arm-none-eabi/lib/thumb/v8-m.main+fp/hard\libc_nano.a(lib_a-lseekr.o)
 .text._lseek_r
                0x00000000       0x24 c:/program files (x86)/gnu arm embedded toolchain/10 2021.10/bin/../lib/gcc/arm-none-eabi/10.3.1/../../../../arm-none-eabi/lib/thumb/v8-m.main+fp/hard\libc_nano.a(lib_a-lseekr.o)
 .debug_frame   0x00000000       0x2c c:/program files (x86)/gnu arm embedded toolchain/10 2021.10/bin/../lib/gcc/arm-none-eabi/10.3.1/../../../../arm-none-eabi/lib/thumb/v8-m.main+fp/hard\libc_nano.a(lib_a-lseekr.o)
 .ARM.attributes
                0x00000000       0x38 c:/program files (x86)/gnu arm embedded toolchain/10 2021.10/bin/../lib/gcc/arm-none-eabi/10.3.1/../../../../arm-none-eabi/lib/thumb/v8-m.main+fp/hard\libc_nano.a(lib_a-lseekr.o)
 .text          0x00000000        0x0 c:/program files (x86)/gnu arm embedded toolchain/10 2021.10/bin/../lib/gcc/arm-none-eabi/10.3.1/../../../../arm-none-eabi/lib/thumb/v8-m.main+fp/hard\libc_nano.a(lib_a-mlock.o)
 .data          0x00000000        0x0 c:/program files (x86)/gnu arm embedded toolchain/10 2021.10/bin/../lib/gcc/arm-none-eabi/10.3.1/../../../../arm-none-eabi/lib/thumb/v8-m.main+fp/hard\libc_nano.a(lib_a-mlock.o)
 .bss           0x00000000        0x0 c:/program files (x86)/gnu arm embedded toolchain/10 2021.10/bin/../lib/gcc/arm-none-eabi/10.3.1/../../../../arm-none-eabi/lib/thumb/v8-m.main+fp/hard\libc_nano.a(lib_a-mlock.o)
 .text.__malloc_lock
                0x00000000        0xc c:/program files (x86)/gnu arm embedded toolchain/10 2021.10/bin/../lib/gcc/arm-none-eabi/10.3.1/../../../../arm-none-eabi/lib/thumb/v8-m.main+fp/hard\libc_nano.a(lib_a-mlock.o)
 .text.__malloc_unlock
                0x00000000        0xc c:/program files (x86)/gnu arm embedded toolchain/10 2021.10/bin/../lib/gcc/arm-none-eabi/10.3.1/../../../../arm-none-eabi/lib/thumb/v8-m.main+fp/hard\libc_nano.a(lib_a-mlock.o)
 .debug_frame   0x00000000       0x30 c:/program files (x86)/gnu arm embedded toolchain/10 2021.10/bin/../lib/gcc/arm-none-eabi/10.3.1/../../../../arm-none-eabi/lib/thumb/v8-m.main+fp/hard\libc_nano.a(lib_a-mlock.o)
 .ARM.attributes
                0x00000000       0x38 c:/program files (x86)/gnu arm embedded toolchain/10 2021.10/bin/../lib/gcc/arm-none-eabi/10.3.1/../../../../arm-none-eabi/lib/thumb/v8-m.main+fp/hard\libc_nano.a(lib_a-mlock.o)
 .text          0x00000000        0x0 c:/program files (x86)/gnu arm embedded toolchain/10 2021.10/bin/../lib/gcc/arm-none-eabi/10.3.1/../../../../arm-none-eabi/lib/thumb/v8-m.main+fp/hard\libc_nano.a(lib_a-nano-freer.o)
 .data          0x00000000        0x0 c:/program files (x86)/gnu arm embedded toolchain/10 2021.10/bin/../lib/gcc/arm-none-eabi/10.3.1/../../../../arm-none-eabi/lib/thumb/v8-m.main+fp/hard\libc_nano.a(lib_a-nano-freer.o)
 .bss           0x00000000        0x0 c:/program files (x86)/gnu arm embedded toolchain/10 2021.10/bin/../lib/gcc/arm-none-eabi/10.3.1/../../../../arm-none-eabi/lib/thumb/v8-m.main+fp/hard\libc_nano.a(lib_a-nano-freer.o)
 .text._free_r  0x00000000       0x98 c:/program files (x86)/gnu arm embedded toolchain/10 2021.10/bin/../lib/gcc/arm-none-eabi/10.3.1/../../../../arm-none-eabi/lib/thumb/v8-m.main+fp/hard\libc_nano.a(lib_a-nano-freer.o)
 .debug_frame   0x00000000       0x38 c:/program files (x86)/gnu arm embedded toolchain/10 2021.10/bin/../lib/gcc/arm-none-eabi/10.3.1/../../../../arm-none-eabi/lib/thumb/v8-m.main+fp/hard\libc_nano.a(lib_a-nano-freer.o)
 .ARM.attributes
                0x00000000       0x38 c:/program files (x86)/gnu arm embedded toolchain/10 2021.10/bin/../lib/gcc/arm-none-eabi/10.3.1/../../../../arm-none-eabi/lib/thumb/v8-m.main+fp/hard\libc_nano.a(lib_a-nano-freer.o)
 .text          0x00000000        0x0 c:/program files (x86)/gnu arm embedded toolchain/10 2021.10/bin/../lib/gcc/arm-none-eabi/10.3.1/../../../../arm-none-eabi/lib/thumb/v8-m.main+fp/hard\libc_nano.a(lib_a-readr.o)
 .data          0x00000000        0x0 c:/program files (x86)/gnu arm embedded toolchain/10 2021.10/bin/../lib/gcc/arm-none-eabi/10.3.1/../../../../arm-none-eabi/lib/thumb/v8-m.main+fp/hard\libc_nano.a(lib_a-readr.o)
 .bss           0x00000000        0x0 c:/program files (x86)/gnu arm embedded toolchain/10 2021.10/bin/../lib/gcc/arm-none-eabi/10.3.1/../../../../arm-none-eabi/lib/thumb/v8-m.main+fp/hard\libc_nano.a(lib_a-readr.o)
 .text._read_r  0x00000000       0x24 c:/program files (x86)/gnu arm embedded toolchain/10 2021.10/bin/../lib/gcc/arm-none-eabi/10.3.1/../../../../arm-none-eabi/lib/thumb/v8-m.main+fp/hard\libc_nano.a(lib_a-readr.o)
 .debug_frame   0x00000000       0x2c c:/program files (x86)/gnu arm embedded toolchain/10 2021.10/bin/../lib/gcc/arm-none-eabi/10.3.1/../../../../arm-none-eabi/lib/thumb/v8-m.main+fp/hard\libc_nano.a(lib_a-readr.o)
 .ARM.attributes
                0x00000000       0x38 c:/program files (x86)/gnu arm embedded toolchain/10 2021.10/bin/../lib/gcc/arm-none-eabi/10.3.1/../../../../arm-none-eabi/lib/thumb/v8-m.main+fp/hard\libc_nano.a(lib_a-readr.o)
 .text          0x00000000        0x0 c:/program files (x86)/gnu arm embedded toolchain/10 2021.10/bin/../lib/gcc/arm-none-eabi/10.3.1/../../../../arm-none-eabi/lib/thumb/v8-m.main+fp/hard\libc_nano.a(lib_a-reent.o)
 .data          0x00000000        0x0 c:/program files (x86)/gnu arm embedded toolchain/10 2021.10/bin/../lib/gcc/arm-none-eabi/10.3.1/../../../../arm-none-eabi/lib/thumb/v8-m.main+fp/hard\libc_nano.a(lib_a-reent.o)
 .bss           0x00000000        0x0 c:/program files (x86)/gnu arm embedded toolchain/10 2021.10/bin/../lib/gcc/arm-none-eabi/10.3.1/../../../../arm-none-eabi/lib/thumb/v8-m.main+fp/hard\libc_nano.a(lib_a-reent.o)
 .text.cleanup_glue
                0x00000000       0x1a c:/program files (x86)/gnu arm embedded toolchain/10 2021.10/bin/../lib/gcc/arm-none-eabi/10.3.1/../../../../arm-none-eabi/lib/thumb/v8-m.main+fp/hard\libc_nano.a(lib_a-reent.o)
 .text._reclaim_reent
                0x00000000       0xb8 c:/program files (x86)/gnu arm embedded toolchain/10 2021.10/bin/../lib/gcc/arm-none-eabi/10.3.1/../../../../arm-none-eabi/lib/thumb/v8-m.main+fp/hard\libc_nano.a(lib_a-reent.o)
 .bss.errno     0x00000000        0x4 c:/program files (x86)/gnu arm embedded toolchain/10 2021.10/bin/../lib/gcc/arm-none-eabi/10.3.1/../../../../arm-none-eabi/lib/thumb/v8-m.main+fp/hard\libc_nano.a(lib_a-reent.o)
 .debug_frame   0x00000000       0x5c c:/program files (x86)/gnu arm embedded toolchain/10 2021.10/bin/../lib/gcc/arm-none-eabi/10.3.1/../../../../arm-none-eabi/lib/thumb/v8-m.main+fp/hard\libc_nano.a(lib_a-reent.o)
 .ARM.attributes
                0x00000000       0x38 c:/program files (x86)/gnu arm embedded toolchain/10 2021.10/bin/../lib/gcc/arm-none-eabi/10.3.1/../../../../arm-none-eabi/lib/thumb/v8-m.main+fp/hard\libc_nano.a(lib_a-reent.o)
 .text          0x00000000        0x0 c:/program files (x86)/gnu arm embedded toolchain/10 2021.10/bin/../lib/gcc/arm-none-eabi/10.3.1/thumb/v8-m.main+fp/hard/crtend.o
 .data          0x00000000        0x0 c:/program files (x86)/gnu arm embedded toolchain/10 2021.10/bin/../lib/gcc/arm-none-eabi/10.3.1/thumb/v8-m.main+fp/hard/crtend.o
 .bss           0x00000000        0x0 c:/program files (x86)/gnu arm embedded toolchain/10 2021.10/bin/../lib/gcc/arm-none-eabi/10.3.1/thumb/v8-m.main+fp/hard/crtend.o
 .rodata        0x00000000       0x24 c:/program files (x86)/gnu arm embedded toolchain/10 2021.10/bin/../lib/gcc/arm-none-eabi/10.3.1/thumb/v8-m.main+fp/hard/crtend.o
 .text          0x00000000        0x0 c:/program files (x86)/gnu arm embedded toolchain/10 2021.10/bin/../lib/gcc/arm-none-eabi/10.3.1/thumb/v8-m.main+fp/hard/crtn.o
 .data          0x00000000        0x0 c:/program files (x86)/gnu arm embedded toolchain/10 2021.10/bin/../lib/gcc/arm-none-eabi/10.3.1/thumb/v8-m.main+fp/hard/crtn.o
 .bss           0x00000000        0x0 c:/program files (x86)/gnu arm embedded toolchain/10 2021.10/bin/../lib/gcc/arm-none-eabi/10.3.1/thumb/v8-m.main+fp/hard/crtn.o
 .text          0x00000000        0x0 c:/program files (x86)/gnu arm embedded toolchain/10 2021.10/bin/../lib/gcc/arm-none-eabi/10.3.1/../../../../arm-none-eabi/lib/thumb/v8-m.main+fp/hard\libm.a(lib_a-sf_atan.o)
 .data          0x00000000        0x0 c:/program files (x86)/gnu arm embedded toolchain/10 2021.10/bin/../lib/gcc/arm-none-eabi/10.3.1/../../../../arm-none-eabi/lib/thumb/v8-m.main+fp/hard\libm.a(lib_a-sf_atan.o)
 .bss           0x00000000        0x0 c:/program files (x86)/gnu arm embedded toolchain/10 2021.10/bin/../lib/gcc/arm-none-eabi/10.3.1/../../../../arm-none-eabi/lib/thumb/v8-m.main+fp/hard\libm.a(lib_a-sf_atan.o)
 .text          0x00000000        0x0 c:/program files (x86)/gnu arm embedded toolchain/10 2021.10/bin/../lib/gcc/arm-none-eabi/10.3.1/../../../../arm-none-eabi/lib/thumb/v8-m.main+fp/hard\libm.a(lib_a-sf_cos.o)
 .data          0x00000000        0x0 c:/program files (x86)/gnu arm embedded toolchain/10 2021.10/bin/../lib/gcc/arm-none-eabi/10.3.1/../../../../arm-none-eabi/lib/thumb/v8-m.main+fp/hard\libm.a(lib_a-sf_cos.o)
 .bss           0x00000000        0x0 c:/program files (x86)/gnu arm embedded toolchain/10 2021.10/bin/../lib/gcc/arm-none-eabi/10.3.1/../../../../arm-none-eabi/lib/thumb/v8-m.main+fp/hard\libm.a(lib_a-sf_cos.o)
 .text          0x00000000        0x0 c:/program files (x86)/gnu arm embedded toolchain/10 2021.10/bin/../lib/gcc/arm-none-eabi/10.3.1/../../../../arm-none-eabi/lib/thumb/v8-m.main+fp/hard\libm.a(lib_a-sf_fabs.o)
 .data          0x00000000        0x0 c:/program files (x86)/gnu arm embedded toolchain/10 2021.10/bin/../lib/gcc/arm-none-eabi/10.3.1/../../../../arm-none-eabi/lib/thumb/v8-m.main+fp/hard\libm.a(lib_a-sf_fabs.o)
 .bss           0x00000000        0x0 c:/program files (x86)/gnu arm embedded toolchain/10 2021.10/bin/../lib/gcc/arm-none-eabi/10.3.1/../../../../arm-none-eabi/lib/thumb/v8-m.main+fp/hard\libm.a(lib_a-sf_fabs.o)
 .text          0x00000000        0x0 c:/program files (x86)/gnu arm embedded toolchain/10 2021.10/bin/../lib/gcc/arm-none-eabi/10.3.1/../../../../arm-none-eabi/lib/thumb/v8-m.main+fp/hard\libm.a(lib_a-sf_sin.o)
 .data          0x00000000        0x0 c:/program files (x86)/gnu arm embedded toolchain/10 2021.10/bin/../lib/gcc/arm-none-eabi/10.3.1/../../../../arm-none-eabi/lib/thumb/v8-m.main+fp/hard\libm.a(lib_a-sf_sin.o)
 .bss           0x00000000        0x0 c:/program files (x86)/gnu arm embedded toolchain/10 2021.10/bin/../lib/gcc/arm-none-eabi/10.3.1/../../../../arm-none-eabi/lib/thumb/v8-m.main+fp/hard\libm.a(lib_a-sf_sin.o)
 .text          0x00000000        0x0 c:/program files (x86)/gnu arm embedded toolchain/10 2021.10/bin/../lib/gcc/arm-none-eabi/10.3.1/../../../../arm-none-eabi/lib/thumb/v8-m.main+fp/hard\libm.a(lib_a-wf_sqrt.o)
 .data          0x00000000        0x0 c:/program files (x86)/gnu arm embedded toolchain/10 2021.10/bin/../lib/gcc/arm-none-eabi/10.3.1/../../../../arm-none-eabi/lib/thumb/v8-m.main+fp/hard\libm.a(lib_a-wf_sqrt.o)
 .bss           0x00000000        0x0 c:/program files (x86)/gnu arm embedded toolchain/10 2021.10/bin/../lib/gcc/arm-none-eabi/10.3.1/../../../../arm-none-eabi/lib/thumb/v8-m.main+fp/hard\libm.a(lib_a-wf_sqrt.o)
 .text          0x00000000        0x0 c:/program files (x86)/gnu arm embedded toolchain/10 2021.10/bin/../lib/gcc/arm-none-eabi/10.3.1/../../../../arm-none-eabi/lib/thumb/v8-m.main+fp/hard\libm.a(lib_a-ef_rem_pio2.o)
 .data          0x00000000        0x0 c:/program files (x86)/gnu arm embedded toolchain/10 2021.10/bin/../lib/gcc/arm-none-eabi/10.3.1/../../../../arm-none-eabi/lib/thumb/v8-m.main+fp/hard\libm.a(lib_a-ef_rem_pio2.o)
 .bss           0x00000000        0x0 c:/program files (x86)/gnu arm embedded toolchain/10 2021.10/bin/../lib/gcc/arm-none-eabi/10.3.1/../../../../arm-none-eabi/lib/thumb/v8-m.main+fp/hard\libm.a(lib_a-ef_rem_pio2.o)
 .text          0x00000000        0x0 c:/program files (x86)/gnu arm embedded toolchain/10 2021.10/bin/../lib/gcc/arm-none-eabi/10.3.1/../../../../arm-none-eabi/lib/thumb/v8-m.main+fp/hard\libm.a(lib_a-ef_sqrt.o)
 .data          0x00000000        0x0 c:/program files (x86)/gnu arm embedded toolchain/10 2021.10/bin/../lib/gcc/arm-none-eabi/10.3.1/../../../../arm-none-eabi/lib/thumb/v8-m.main+fp/hard\libm.a(lib_a-ef_sqrt.o)
 .bss           0x00000000        0x0 c:/program files (x86)/gnu arm embedded toolchain/10 2021.10/bin/../lib/gcc/arm-none-eabi/10.3.1/../../../../arm-none-eabi/lib/thumb/v8-m.main+fp/hard\libm.a(lib_a-ef_sqrt.o)
 .text          0x00000000        0x0 c:/program files (x86)/gnu arm embedded toolchain/10 2021.10/bin/../lib/gcc/arm-none-eabi/10.3.1/../../../../arm-none-eabi/lib/thumb/v8-m.main+fp/hard\libm.a(lib_a-kf_cos.o)
 .data          0x00000000        0x0 c:/program files (x86)/gnu arm embedded toolchain/10 2021.10/bin/../lib/gcc/arm-none-eabi/10.3.1/../../../../arm-none-eabi/lib/thumb/v8-m.main+fp/hard\libm.a(lib_a-kf_cos.o)
 .bss           0x00000000        0x0 c:/program files (x86)/gnu arm embedded toolchain/10 2021.10/bin/../lib/gcc/arm-none-eabi/10.3.1/../../../../arm-none-eabi/lib/thumb/v8-m.main+fp/hard\libm.a(lib_a-kf_cos.o)
 .text          0x00000000        0x0 c:/program files (x86)/gnu arm embedded toolchain/10 2021.10/bin/../lib/gcc/arm-none-eabi/10.3.1/../../../../arm-none-eabi/lib/thumb/v8-m.main+fp/hard\libm.a(lib_a-kf_rem_pio2.o)
 .data          0x00000000        0x0 c:/program files (x86)/gnu arm embedded toolchain/10 2021.10/bin/../lib/gcc/arm-none-eabi/10.3.1/../../../../arm-none-eabi/lib/thumb/v8-m.main+fp/hard\libm.a(lib_a-kf_rem_pio2.o)
 .bss           0x00000000        0x0 c:/program files (x86)/gnu arm embedded toolchain/10 2021.10/bin/../lib/gcc/arm-none-eabi/10.3.1/../../../../arm-none-eabi/lib/thumb/v8-m.main+fp/hard\libm.a(lib_a-kf_rem_pio2.o)
 .text          0x00000000        0x0 c:/program files (x86)/gnu arm embedded toolchain/10 2021.10/bin/../lib/gcc/arm-none-eabi/10.3.1/../../../../arm-none-eabi/lib/thumb/v8-m.main+fp/hard\libm.a(lib_a-kf_sin.o)
 .data          0x00000000        0x0 c:/program files (x86)/gnu arm embedded toolchain/10 2021.10/bin/../lib/gcc/arm-none-eabi/10.3.1/../../../../arm-none-eabi/lib/thumb/v8-m.main+fp/hard\libm.a(lib_a-kf_sin.o)
 .bss           0x00000000        0x0 c:/program files (x86)/gnu arm embedded toolchain/10 2021.10/bin/../lib/gcc/arm-none-eabi/10.3.1/../../../../arm-none-eabi/lib/thumb/v8-m.main+fp/hard\libm.a(lib_a-kf_sin.o)
 .text          0x00000000        0x0 c:/program files (x86)/gnu arm embedded toolchain/10 2021.10/bin/../lib/gcc/arm-none-eabi/10.3.1/../../../../arm-none-eabi/lib/thumb/v8-m.main+fp/hard\libm.a(lib_a-sf_floor.o)
 .data          0x00000000        0x0 c:/program files (x86)/gnu arm embedded toolchain/10 2021.10/bin/../lib/gcc/arm-none-eabi/10.3.1/../../../../arm-none-eabi/lib/thumb/v8-m.main+fp/hard\libm.a(lib_a-sf_floor.o)
 .bss           0x00000000        0x0 c:/program files (x86)/gnu arm embedded toolchain/10 2021.10/bin/../lib/gcc/arm-none-eabi/10.3.1/../../../../arm-none-eabi/lib/thumb/v8-m.main+fp/hard\libm.a(lib_a-sf_floor.o)
 .text          0x00000000        0x0 c:/program files (x86)/gnu arm embedded toolchain/10 2021.10/bin/../lib/gcc/arm-none-eabi/10.3.1/../../../../arm-none-eabi/lib/thumb/v8-m.main+fp/hard\libm.a(lib_a-sf_scalbn.o)
 .data          0x00000000        0x0 c:/program files (x86)/gnu arm embedded toolchain/10 2021.10/bin/../lib/gcc/arm-none-eabi/10.3.1/../../../../arm-none-eabi/lib/thumb/v8-m.main+fp/hard\libm.a(lib_a-sf_scalbn.o)
 .bss           0x00000000        0x0 c:/program files (x86)/gnu arm embedded toolchain/10 2021.10/bin/../lib/gcc/arm-none-eabi/10.3.1/../../../../arm-none-eabi/lib/thumb/v8-m.main+fp/hard\libm.a(lib_a-sf_scalbn.o)

Memory Configuration

Name             Origin             Length             Attributes
ITCM             0x00000000         0x00000000         xr
DTCM             0x00000000         0x00000000         xrw
FLASH            0x00000000         0x00040000         xr
RAM              0x20000000         0x0000a000         xrw
DATA_FLASH       0x08000000         0x00001000         xr
QSPI_FLASH       0x60000000         0x00000000         xr
OSPI_DEVICE_0    0x80020000         0x00000000         xr
OSPI_DEVICE_1    0x80030000         0x00000000         xr
OSPI_DEVICE_0_RAM 0x80020000         0x00000000         xrw
OSPI_DEVICE_1_RAM 0x80030000         0x00000000         xrw
SDRAM            0x80010000         0x00000000         xrw
OPTION_SETTING   0x0100a100         0x00000100         r
OPTION_SETTING_OFS 0x0100a100         0x00000018         r
OPTION_SETTING_SAS 0x0100a134         0x000000cc         r
OPTION_SETTING_S 0x0100a200         0x00000100         r
ID_CODE          0x0100a120         0x00000010         xr
*default*        0x00000000         0xffffffff

Linker script and memory map

LOAD c:/program files (x86)/gnu arm embedded toolchain/10 2021.10/bin/../lib/gcc/arm-none-eabi/10.3.1/thumb/v8-m.main+fp/hard/crti.o
LOAD c:/program files (x86)/gnu arm embedded toolchain/10 2021.10/bin/../lib/gcc/arm-none-eabi/10.3.1/thumb/v8-m.main+fp/hard/crtbegin.o
LOAD c:/program files (x86)/gnu arm embedded toolchain/10 2021.10/bin/../lib/gcc/arm-none-eabi/10.3.1/../../../../arm-none-eabi/lib/thumb/v8-m.main+fp/hard/rdimon-crt0.o
START GROUP
LOAD ./src/application/user_interface/ics/r_mtr_ics.o
LOAD ./src/application/main/mtr_main.o
LOAD ./src/hal_entry.o
LOAD ./ra_gen/common_data.o
LOAD ./ra_gen/elc_data.o
LOAD ./ra_gen/hal_data.o
LOAD ./ra_gen/main.o
LOAD ./ra_gen/pin_data.o
LOAD ./ra_gen/vector_data.o
LOAD ./ra/fsp/src/rm_motor_speed/rm_motor_speed.o
LOAD ./ra/fsp/src/rm_motor_sensorless/rm_motor_sensorless.o
LOAD ./ra/fsp/src/rm_motor_estimate/rm_motor_estimate.o
LOAD ./ra/fsp/src/rm_motor_driver/rm_motor_driver.o
LOAD ./ra/fsp/src/rm_motor_current/rm_motor_current.o
LOAD ./ra/fsp/src/r_poeg/r_poeg.o
LOAD ./ra/fsp/src/r_ioport/r_ioport.o
LOAD ./ra/fsp/src/r_gpt_three_phase/r_gpt_three_phase.o
LOAD ./ra/fsp/src/r_gpt/r_gpt.o
LOAD ./ra/fsp/src/r_elc/r_elc.o
LOAD ./ra/fsp/src/r_agt/r_agt.o
LOAD ./ra/fsp/src/r_adc/r_adc.o
LOAD ./ra/fsp/src/bsp/mcu/all/bsp_clocks.o
LOAD ./ra/fsp/src/bsp/mcu/all/bsp_common.o
LOAD ./ra/fsp/src/bsp/mcu/all/bsp_delay.o
LOAD ./ra/fsp/src/bsp/mcu/all/bsp_group_irq.o
LOAD ./ra/fsp/src/bsp/mcu/all/bsp_guard.o
LOAD ./ra/fsp/src/bsp/mcu/all/bsp_io.o
LOAD ./ra/fsp/src/bsp/mcu/all/bsp_irq.o
LOAD ./ra/fsp/src/bsp/mcu/all/bsp_macl.o
LOAD ./ra/fsp/src/bsp/mcu/all/bsp_register_protection.o
LOAD ./ra/fsp/src/bsp/mcu/all/bsp_rom_registers.o
LOAD ./ra/fsp/src/bsp/mcu/all/bsp_sbrk.o
LOAD ./ra/fsp/src/bsp/mcu/all/bsp_sdram.o
LOAD ./ra/fsp/src/bsp/mcu/all/bsp_security.o
LOAD ./ra/fsp/src/bsp/cmsis/Device/RENESAS/Source/startup.o
LOAD ./ra/fsp/src/bsp/cmsis/Device/RENESAS/Source/system.o
LOAD ./ra/board/ra6t3_mck/board_init.o
LOAD ./ra/board/ra6t3_mck/board_leds.o
LOAD C:/Users/a5143778/e2_studio/customized_workspace/RA6T3_MCILV1_SPM_LESS_FOC_E2S_V101/src/application/user_interface/ics/ICS2_RA6T3.o
LOAD C:\Users\a5143778\e2_studio\customized_workspace\RA6T3_MCILV1_SPM_LESS_FOC_E2S_V101\ra\fsp\lib\rm_motor_current\cm33_gcc\librm_motor_current.a
LOAD C:\Users\a5143778\e2_studio\customized_workspace\RA6T3_MCILV1_SPM_LESS_FOC_E2S_V101\ra\fsp\lib\rm_motor_estimate\cm33_gcc\librm_motor_estimate.a
LOAD C:\Users\a5143778\e2_studio\customized_workspace\RA6T3_MCILV1_SPM_LESS_FOC_E2S_V101\ra\fsp\lib\rm_motor_speed\cm33_gcc\librm_motor_speed.a
END GROUP
START GROUP
LOAD c:/program files (x86)/gnu arm embedded toolchain/10 2021.10/bin/../lib/gcc/arm-none-eabi/10.3.1/thumb/v8-m.main+fp/hard\libgcc.a
LOAD c:/program files (x86)/gnu arm embedded toolchain/10 2021.10/bin/../lib/gcc/arm-none-eabi/10.3.1/../../../../arm-none-eabi/lib/thumb/v8-m.main+fp/hard\libg_nano.a
LOAD c:/program files (x86)/gnu arm embedded toolchain/10 2021.10/bin/../lib/gcc/arm-none-eabi/10.3.1/../../../../arm-none-eabi/lib/thumb/v8-m.main+fp/hard\libc_nano.a
END GROUP
START GROUP
LOAD c:/program files (x86)/gnu arm embedded toolchain/10 2021.10/bin/../lib/gcc/arm-none-eabi/10.3.1/thumb/v8-m.main+fp/hard\libgcc.a
LOAD c:/program files (x86)/gnu arm embedded toolchain/10 2021.10/bin/../lib/gcc/arm-none-eabi/10.3.1/../../../../arm-none-eabi/lib/thumb/v8-m.main+fp/hard\libc_nano.a
LOAD c:/program files (x86)/gnu arm embedded toolchain/10 2021.10/bin/../lib/gcc/arm-none-eabi/10.3.1/../../../../arm-none-eabi/lib/thumb/v8-m.main+fp/hard\librdimon_nano.a
END GROUP
START GROUP
LOAD c:/program files (x86)/gnu arm embedded toolchain/10 2021.10/bin/../lib/gcc/arm-none-eabi/10.3.1/thumb/v8-m.main+fp/hard\libgcc.a
LOAD c:/program files (x86)/gnu arm embedded toolchain/10 2021.10/bin/../lib/gcc/arm-none-eabi/10.3.1/../../../../arm-none-eabi/lib/thumb/v8-m.main+fp/hard\libc_nano.a
LOAD c:/program files (x86)/gnu arm embedded toolchain/10 2021.10/bin/../lib/gcc/arm-none-eabi/10.3.1/../../../../arm-none-eabi/lib/thumb/v8-m.main+fp/hard\librdimon_nano.a
END GROUP
LOAD c:/program files (x86)/gnu arm embedded toolchain/10 2021.10/bin/../lib/gcc/arm-none-eabi/10.3.1/thumb/v8-m.main+fp/hard/crtend.o
LOAD c:/program files (x86)/gnu arm embedded toolchain/10 2021.10/bin/../lib/gcc/arm-none-eabi/10.3.1/thumb/v8-m.main+fp/hard/crtn.o
                0x20000000                RAM_START = 0x20000000
                0x0000a000                RAM_LENGTH = 0xa000
                0x00000000                FLASH_START = 0x0
                0x00040000                FLASH_LENGTH = 0x40000
                0x08000000                DATA_FLASH_START = 0x8000000
                0x00001000                DATA_FLASH_LENGTH = 0x1000
                0x0100a100                OPTION_SETTING_START = 0x100a100
                0x00000100                OPTION_SETTING_LENGTH = 0x100
                0x0100a200                OPTION_SETTING_S_START = 0x100a200
                0x00000100                OPTION_SETTING_S_LENGTH = 0x100
                0x0100a120                ID_CODE_START = 0x100a120
                0x00000010                ID_CODE_LENGTH = 0x10
                0x80010000                SDRAM_START = 0x80010000
                0x00000000                SDRAM_LENGTH = 0x0
                0x60000000                QSPI_FLASH_START = 0x60000000
                0x00000000                QSPI_FLASH_LENGTH = 0x0
                0x80020000                OSPI_DEVICE_0_START = 0x80020000
                0x00000000                OSPI_DEVICE_0_LENGTH = 0x0
                0x80030000                OSPI_DEVICE_1_START = 0x80030000
                0x00000000                OSPI_DEVICE_1_LENGTH = 0x0
                0x00000000                QSPI_FLASH_PRV_LENGTH = DEFINED (QSPI_FLASH_SIZE)?ABSOLUTE (QSPI_FLASH_SIZE):ABSOLUTE (QSPI_FLASH_LENGTH)
                0x00000000                OSPI_DEVICE_0_PRV_LENGTH = DEFINED (OSPI_DEVICE_0_SIZE)?ABSOLUTE (OSPI_DEVICE_0_SIZE):ABSOLUTE (OSPI_DEVICE_0_LENGTH)
                0x00000000                OSPI_DEVICE_1_PRV_LENGTH = DEFINED (OSPI_DEVICE_1_SIZE)?ABSOLUTE (OSPI_DEVICE_1_SIZE):ABSOLUTE (OSPI_DEVICE_1_LENGTH)
                0x00000000                __RESERVE_NS_RAM = ((! (DEFINED (PROJECT_NONSECURE)) && DEFINED (RAM_NS_BUFFER_LENGTH)) && (OPTION_SETTING_S_LENGTH != 0x0))
                0x00000000                ITCM_START = DEFINED (ITCM_START)?ITCM_START:0x0
                0x00000000                ITCM_LENGTH = DEFINED (ITCM_LENGTH)?ITCM_LENGTH:0x0
                0x00000000                DTCM_START = DEFINED (DTCM_START)?DTCM_START:0x0
                0x00000000                DTCM_LENGTH = DEFINED (DTCM_LENGTH)?DTCM_LENGTH:0x0
                0x00000000                RAM_NS_BUFFER_BLOCK_LENGTH = DEFINED (RAM_NS_BUFFER_LENGTH)?ALIGN (RAM_NS_BUFFER_LENGTH, 0x2000):0x0
                0x00000000                RAM_NS_BUFFER_LENGTH = DEFINED (RAM_NS_BUFFER_LENGTH)?RAM_NS_BUFFER_LENGTH:0x0
                0x2000a000                RAM_NS_BUFFER_START = ((RAM_START + RAM_LENGTH) - RAM_NS_BUFFER_LENGTH)
                0x2000a000                RAM_NS_BUFFER_BLOCK_START = ((RAM_START + RAM_LENGTH) - RAM_NS_BUFFER_BLOCK_LENGTH)
                0x0100a180                OPTION_SETTING_START_NS = DEFINED (PROJECT_NONSECURE)?OPTION_SETTING_START:(OPTION_SETTING_START + 0x80)
                0x00000001                __bl_FSP_BOOTABLE_IMAGE = 0x1
                0x00000001                __bln_FSP_BOOTABLE_IMAGE = 0x1
                0x00000001                PROJECT_SECURE_OR_FLAT = (((! (DEFINED (PROJECT_NONSECURE)) || DEFINED (PROJECT_SECURE)) && OPTION_SETTING_LENGTH) && ! (DEFINED (FSP_BOOTABLE_IMAGE)))
                0x00000000                USE_OPTION_SETTING_NS = (DEFINED (PROJECT_NONSECURE) && ! (DEFINED (FSP_BOOTABLE_IMAGE)))
                0x00000000                __bl_FLASH_IMAGE_START = ! (DEFINED (FLASH_BOOTLOADER_LENGTH))?0x0:(FLASH_APPLICATION_IMAGE_NUMBER == 0x1)?((FLASH_START + FLASH_BOOTLOADER_LENGTH) + FLASH_BOOTLOADER_HEADER_LENGTH):(DEFINED (BOOTLOADER_SECONDARY_USE_QSPI) || DEFINED (BOOTLOADER_SECONDARY_USE_OSPI_B))?(((FLASH_START + FLASH_BOOTLOADER_LENGTH) + FLASH_BOOTLOADER_SCRATCH_LENGTH) + FLASH_BOOTLOADER_HEADER_LENGTH):((((FLASH_START + FLASH_BOOTLOADER_LENGTH) + FLASH_BOOTLOADER_SCRATCH_LENGTH) + FLASH_APPLICATION_S_LENGTH) + FLASH_BOOTLOADER_HEADER_LENGTH)
                0x00000000                __bl_FLASH_IMAGE_LENGTH = ! (DEFINED (FLASH_BOOTLOADER_LENGTH))?0x0:(FLASH_APPLICATION_S_LENGTH - FLASH_BOOTLOADER_HEADER_LENGTH)
                0x00000000                __bl_FLASH_IMAGE_END = (__bl_FLASH_IMAGE_START + __bl_FLASH_IMAGE_LENGTH)
                0x00000000                __bl_XIP_SECONDARY_FLASH_IMAGE_START = ! (DEFINED (FLASH_BOOTLOADER_LENGTH))?0x0:(((FLASH_START + FLASH_BOOTLOADER_LENGTH) + FLASH_APPLICATION_S_LENGTH) + FLASH_BOOTLOADER_HEADER_LENGTH)
                0x00000000                __bl_XIP_SECONDARY_FLASH_IMAGE_END = (__bl_XIP_SECONDARY_FLASH_IMAGE_START + __bl_FLASH_IMAGE_LENGTH)
                0x00000000                __bl_FLASH_NS_START = ! (DEFINED (FLASH_BOOTLOADER_LENGTH))?0x0:(FLASH_APPLICATION_NS_LENGTH == 0x0)?__bl_FLASH_IMAGE_END:((__bl_FLASH_IMAGE_START - FLASH_BOOTLOADER_HEADER_LENGTH) + FLASH_APPLICATION_S_LENGTH)
                0x00000000                __bl_FLASH_NSC_START = ! (DEFINED (FLASH_BOOTLOADER_LENGTH))?0x0:(FLASH_APPLICATION_NS_LENGTH == 0x0)?__bl_FLASH_IMAGE_END:(__bl_FLASH_IMAGE_END - FLASH_APPLICATION_NSC_LENGTH)
                0x00000000                __bl_RAM_NS_START = ! (DEFINED (FLASH_BOOTLOADER_LENGTH))?0x0:(FLASH_APPLICATION_NS_LENGTH == 0x0)?(RAM_START + RAM_LENGTH):((RAM_START + RAM_LENGTH) - RAM_APPLICATION_NS_LENGTH)
                0x00000000                __bl_RAM_NSC_START = ! (DEFINED (FLASH_BOOTLOADER_LENGTH))?0x0:(FLASH_APPLICATION_NS_LENGTH == 0x0)?(RAM_START + RAM_LENGTH):(__bl_RAM_NS_START - RAM_APPLICATION_NSC_LENGTH)
                0x00000000                __bl_FLASH_NS_IMAGE_START = ! (DEFINED (FLASH_BOOTLOADER_LENGTH))?0x0:(FLASH_APPLICATION_NS_LENGTH == 0x0)?__bl_FLASH_IMAGE_END:(__bl_FLASH_NS_START + FLASH_BOOTLOADER_HEADER_LENGTH_2)
                0x00000000                __bln_FLASH_IMAGE_START = (__bl_FLASH_NS_IMAGE_START | ! (DEFINED (NS_OFFSET_START))?0x0:NS_OFFSET_START)
                0x00000000                __bln_FLASH_IMAGE_LENGTH = ! (DEFINED (FLASH_BOOTLOADER_LENGTH))?0x0:(FLASH_APPLICATION_NS_LENGTH == 0x0)?__bl_FLASH_IMAGE_END:(FLASH_APPLICATION_NS_LENGTH - FLASH_BOOTLOADER_HEADER_LENGTH_2)
                0x00000000                XIP_SECONDARY_SLOT_IMAGE = DEFINED (XIP_SECONDARY_SLOT_IMAGE)?XIP_SECONDARY_SLOT_IMAGE:0x0
                0x00000000                FLASH_ORIGIN = ! (DEFINED (FLASH_IMAGE_START))?FLASH_START:(XIP_SECONDARY_SLOT_IMAGE == 0x1)?XIP_SECONDARY_FLASH_IMAGE_START:FLASH_IMAGE_START
                0x00040000                LIMITED_FLASH_LENGTH = DEFINED (FLASH_IMAGE_LENGTH)?FLASH_IMAGE_LENGTH:DEFINED (FLASH_BOOTLOADER_LENGTH)?FLASH_BOOTLOADER_LENGTH:FLASH_LENGTH
                0x00000034                OPTION_SETTING_SAS_SIZE = 0x34
                0x000000cc                OPTION_SETTING_SAS_LENGTH = ! (DEFINED (OPTION_SETTING_LENGTH))?0x0:(OPTION_SETTING_LENGTH == 0x0)?0x0:(OPTION_SETTING_LENGTH - OPTION_SETTING_SAS_SIZE)
START GROUP
LOAD c:/program files (x86)/gnu arm embedded toolchain/10 2021.10/bin/../lib/gcc/arm-none-eabi/10.3.1/thumb/v8-m.main+fp/hard\libgcc.a
LOAD c:/program files (x86)/gnu arm embedded toolchain/10 2021.10/bin/../lib/gcc/arm-none-eabi/10.3.1/../../../../arm-none-eabi/lib/thumb/v8-m.main+fp/hard\libc.a
LOAD c:/program files (x86)/gnu arm embedded toolchain/10 2021.10/bin/../lib/gcc/arm-none-eabi/10.3.1/../../../../arm-none-eabi/lib/thumb/v8-m.main+fp/hard\libm.a
END GROUP

.text           0x00000000     0x8a44
                0x00000000                __tz_FLASH_S = ABSOLUTE (FLASH_START)
                0x00000000                __ROM_Start = .
 *(.fixed_vectors*)
 .fixed_vectors
                0x00000000       0x40 ./ra/fsp/src/bsp/cmsis/Device/RENESAS/Source/startup.o
                0x00000000                __Vectors
 *(.application_vectors*)
 .application_vectors
                0x00000040      0x180 ./ra_gen/vector_data.o
                0x00000040                g_vector_table
                0x000001c0                __Vectors_End = .
 *(.flash_gap*)
                0x000001c0                . = (OPTION_SETTING_LENGTH > 0x0)?.:(__ROM_Start + 0x400)
 *(.rom_registers*)
 *(.mcuboot_sce9_key*)
 *(.text*)
 .text          0x000001c0       0x40 c:/program files (x86)/gnu arm embedded toolchain/10 2021.10/bin/../lib/gcc/arm-none-eabi/10.3.1/thumb/v8-m.main+fp/hard/crtbegin.o
 .text.mtr_set_com_variables
                0x00000200      0x258 ./src/application/user_interface/ics/r_mtr_ics.o
                0x00000200                mtr_set_com_variables
 .text.mtr_ics_variables_init
                0x00000458      0x198 ./src/application/user_interface/ics/r_mtr_ics.o
                0x00000458                mtr_ics_variables_init
 .text.mtr_ics_interrupt_process
                0x000005f0      0x338 ./src/application/user_interface/ics/r_mtr_ics.o
                0x000005f0                mtr_ics_interrupt_process
 .text.mtr_board_led_control
                0x00000928       0x54 ./src/application/main/mtr_main.o
 .text.mtr_init
                0x0000097c      0x2c4 ./src/application/main/mtr_main.o
                0x0000097c                mtr_init
 .text.mtr_main
                0x00000c40      0x2b4 ./src/application/main/mtr_main.o
                0x00000c40                mtr_main
 .text.g_poe_overcurrent
                0x00000ef4       0x34 ./src/application/main/mtr_main.o
                0x00000ef4                g_poe_overcurrent
 .text.mtr_callback_event
                0x00000f28       0x60 ./src/application/main/mtr_main.o
                0x00000f28                mtr_callback_event
 .text.hal_entry
                0x00000f88       0x18 ./src/hal_entry.o
                0x00000f88                hal_entry
 .text.R_BSP_WarmStart
                0x00000fa0       0x18 ./src/hal_entry.o
                0x00000fa0                R_BSP_WarmStart
 .text.startup.main
                0x00000fb8        0xc ./ra_gen/main.o
                0x00000fb8                main
 .text.RM_MOTOR_SPEED_Run
                0x00000fc4        0xc ./ra/fsp/src/rm_motor_speed/rm_motor_speed.o
                0x00000fc4                RM_MOTOR_SPEED_Run
 .text.RM_MOTOR_SPEED_SpeedReferenceSet
                0x00000fd0       0x14 ./ra/fsp/src/rm_motor_speed/rm_motor_speed.o
                0x00000fd0                RM_MOTOR_SPEED_SpeedReferenceSet
 .text.RM_MOTOR_SPEED_PositionReferenceSet
                0x00000fe4        0xc ./ra/fsp/src/rm_motor_speed/rm_motor_speed.o
                0x00000fe4                RM_MOTOR_SPEED_PositionReferenceSet
 .text.RM_MOTOR_SPEED_ParameterSet
                0x00000ff0       0x28 ./ra/fsp/src/rm_motor_speed/rm_motor_speed.o
                0x00000ff0                RM_MOTOR_SPEED_ParameterSet
 .text.RM_MOTOR_SPEED_ParameterGet
                0x00001018       0x38 ./ra/fsp/src/rm_motor_speed/rm_motor_speed.o
                0x00001018                RM_MOTOR_SPEED_ParameterGet
 .text.RM_MOTOR_SPEED_Open
                0x00001050      0x1a8 ./ra/fsp/src/rm_motor_speed/rm_motor_speed.o
                0x00001050                RM_MOTOR_SPEED_Open
 .text.RM_MOTOR_SPEED_ParameterUpdate
                0x000011f8      0x158 ./ra/fsp/src/rm_motor_speed/rm_motor_speed.o
                0x000011f8                RM_MOTOR_SPEED_ParameterUpdate
 .text.RM_MOTOR_SPEED_Close
                0x00001350       0x44 ./ra/fsp/src/rm_motor_speed/rm_motor_speed.o
                0x00001350                RM_MOTOR_SPEED_Close
 .text.RM_MOTOR_SPEED_Reset
                0x00001394       0x7c ./ra/fsp/src/rm_motor_speed/rm_motor_speed.o
                0x00001394                RM_MOTOR_SPEED_Reset
 .text.RM_MOTOR_SPEED_SpeedControl
                0x00001410      0x5f4 ./ra/fsp/src/rm_motor_speed/rm_motor_speed.o
                0x00001410                RM_MOTOR_SPEED_SpeedControl
 .text.rm_motor_speed_cyclic
                0x00001a04       0x60 ./ra/fsp/src/rm_motor_speed/rm_motor_speed.o
                0x00001a04                rm_motor_speed_cyclic
 .text.RM_MOTOR_SENSORLESS_Open
                0x00001a64       0x54 ./ra/fsp/src/rm_motor_sensorless/rm_motor_sensorless.o
                0x00001a64                RM_MOTOR_SENSORLESS_Open
 .text.RM_MOTOR_SENSORLESS_Close
                0x00001ab8       0x48 ./ra/fsp/src/rm_motor_sensorless/rm_motor_sensorless.o
                0x00001ab8                RM_MOTOR_SENSORLESS_Close
 .text.RM_MOTOR_SENSORLESS_SpeedSet
                0x00001b00       0x14 ./ra/fsp/src/rm_motor_sensorless/rm_motor_sensorless.o
                0x00001b00                RM_MOTOR_SENSORLESS_SpeedSet
 .text.RM_MOTOR_SENSORLESS_StatusGet
                0x00001b14        0xc ./ra/fsp/src/rm_motor_sensorless/rm_motor_sensorless.o
                0x00001b14                RM_MOTOR_SENSORLESS_StatusGet
 .text.RM_MOTOR_SENSORLESS_AngleGet
                0x00001b20       0x24 ./ra/fsp/src/rm_motor_sensorless/rm_motor_sensorless.o
                0x00001b20                RM_MOTOR_SENSORLESS_AngleGet
 .text.RM_MOTOR_SENSORLESS_SpeedGet
                0x00001b44       0x24 ./ra/fsp/src/rm_motor_sensorless/rm_motor_sensorless.o
                0x00001b44                RM_MOTOR_SENSORLESS_SpeedGet
 .text.RM_MOTOR_SENSORLESS_PositionSet
                0x00001b68        0x4 ./ra/fsp/src/rm_motor_sensorless/rm_motor_sensorless.o
                0x00001b68                RM_MOTOR_SENSORLESS_PositionSet
 .text.RM_MOTOR_SENSORLESS_FunctionSelect
                0x00001b6c        0x4 ./ra/fsp/src/rm_motor_sensorless/rm_motor_sensorless.o
                0x00001b6c                RM_MOTOR_SENSORLESS_FunctionSelect
 .text.rm_motor_sensorless_active
                0x00001b70       0x28 ./ra/fsp/src/rm_motor_sensorless/rm_motor_sensorless.o
 .text.rm_motor_sensorless_inactive
                0x00001b98       0x28 ./ra/fsp/src/rm_motor_sensorless/rm_motor_sensorless.o
 .text.rm_motor_sensorless_nowork
                0x00001bc0        0x4 ./ra/fsp/src/rm_motor_sensorless/rm_motor_sensorless.o
 .text.rm_motor_sensorless_reset
                0x00001bc4       0x28 ./ra/fsp/src/rm_motor_sensorless/rm_motor_sensorless.o
 .text.rm_motor_sensorless_error
                0x00001bec        0x4 ./ra/fsp/src/rm_motor_sensorless/rm_motor_sensorless.o
 .text.rm_motor_sensorless_statemachine_event.isra.0
                0x00001bf0       0x50 ./ra/fsp/src/rm_motor_sensorless/rm_motor_sensorless.o
 .text.RM_MOTOR_SENSORLESS_Reset
                0x00001c40       0x3c ./ra/fsp/src/rm_motor_sensorless/rm_motor_sensorless.o
                0x00001c40                RM_MOTOR_SENSORLESS_Reset
 .text.RM_MOTOR_SENSORLESS_ErrorCheck
                0x00001c7c      0x140 ./ra/fsp/src/rm_motor_sensorless/rm_motor_sensorless.o
                0x00001c7c                RM_MOTOR_SENSORLESS_ErrorCheck
 .text.RM_MOTOR_SENSORLESS_WaitStopFlagGet
                0x00001dbc        0x4 ./ra/fsp/src/rm_motor_sensorless/rm_motor_sensorless.o
                0x00001dbc                RM_MOTOR_SENSORLESS_WaitStopFlagGet
 .text.RM_MOTOR_SENSORLESS_Run
                0x00001dc0       0x50 ./ra/fsp/src/rm_motor_sensorless/rm_motor_sensorless.o
                0x00001dc0                RM_MOTOR_SENSORLESS_Run
 .text.RM_MOTOR_SENSORLESS_Stop
                0x00001e10       0x4c ./ra/fsp/src/rm_motor_sensorless/rm_motor_sensorless.o
                0x00001e10                RM_MOTOR_SENSORLESS_Stop
 .text.RM_MOTOR_SENSORLESS_ErrorSet
                0x00001e5c       0x58 ./ra/fsp/src/rm_motor_sensorless/rm_motor_sensorless.o
                0x00001e5c                RM_MOTOR_SENSORLESS_ErrorSet
 .text.rm_motor_sensorless_current_callback
                0x00001eb4       0x84 ./ra/fsp/src/rm_motor_sensorless/rm_motor_sensorless.o
                0x00001eb4                rm_motor_sensorless_current_callback
 .text.rm_motor_sensorless_speed_callback
                0x00001f38       0x74 ./ra/fsp/src/rm_motor_sensorless/rm_motor_sensorless.o
                0x00001f38                rm_motor_sensorless_speed_callback
 .text.RM_MOTOR_ESTIMATE_CurrentSet
                0x00001fac       0x28 ./ra/fsp/src/rm_motor_estimate/rm_motor_estimate.o
                0x00001fac                RM_MOTOR_ESTIMATE_CurrentSet
 .text.RM_MOTOR_ESTIMATE_SpeedSet
                0x00001fd4       0x10 ./ra/fsp/src/rm_motor_estimate/rm_motor_estimate.o
                0x00001fd4                RM_MOTOR_ESTIMATE_SpeedSet
 .text.RM_MOTOR_ESTIMATE_FlagPiCtrlSet
                0x00001fe4        0x8 ./ra/fsp/src/rm_motor_estimate/rm_motor_estimate.o
                0x00001fe4                RM_MOTOR_ESTIMATE_FlagPiCtrlSet
 .text.RM_MOTOR_ESTIMATE_EstimatedComponentGet
                0x00001fec       0x14 ./ra/fsp/src/rm_motor_estimate/rm_motor_estimate.o
                0x00001fec                RM_MOTOR_ESTIMATE_EstimatedComponentGet
 .text.RM_MOTOR_ESTIMATE_InternalCalculate
                0x00002000        0x4 ./ra/fsp/src/rm_motor_estimate/rm_motor_estimate.o
                0x00002000                RM_MOTOR_ESTIMATE_InternalCalculate
 .text.RM_MOTOR_ESTIMATE_InfoGet
                0x00002004        0x4 ./ra/fsp/src/rm_motor_estimate/rm_motor_estimate.o
                0x00002004                RM_MOTOR_ESTIMATE_InfoGet
 .text.RM_MOTOR_ESTIMATE_ParameterUpdate
                0x00002008       0x30 ./ra/fsp/src/rm_motor_estimate/rm_motor_estimate.o
                0x00002008                RM_MOTOR_ESTIMATE_ParameterUpdate
 .text.RM_MOTOR_ESTIMATE_Open
                0x00002038       0x68 ./ra/fsp/src/rm_motor_estimate/rm_motor_estimate.o
                0x00002038                RM_MOTOR_ESTIMATE_Open
 .text.RM_MOTOR_ESTIMATE_Close
                0x000020a0       0x1c ./ra/fsp/src/rm_motor_estimate/rm_motor_estimate.o
                0x000020a0                RM_MOTOR_ESTIMATE_Close
 .text.RM_MOTOR_ESTIMATE_Reset
                0x000020bc       0x20 ./ra/fsp/src/rm_motor_estimate/rm_motor_estimate.o
                0x000020bc                RM_MOTOR_ESTIMATE_Reset
 .text.RM_MOTOR_ESTIMATE_AngleSpeedGet
                0x000020dc      0x10c ./ra/fsp/src/rm_motor_estimate/rm_motor_estimate.o
                0x000020dc                RM_MOTOR_ESTIMATE_AngleSpeedGet
 .text.RM_MOTOR_ESTIMATE_CyclicProcess
                0x000021e8        0x4 ./ra/fsp/src/rm_motor_estimate/rm_motor_estimate.o
                0x000021e8                RM_MOTOR_ESTIMATE_CyclicProcess
 .text.RM_MOTOR_ESTIMATE_SensorDataSet
                0x000021ec        0x4 ./ra/fsp/src/rm_motor_estimate/rm_motor_estimate.o
                0x000021ec                RM_MOTOR_ESTIMATE_SensorDataSet
 .text.RM_MOTOR_ESTIMATE_AngleAdjust
                0x000021f0        0x4 ./ra/fsp/src/rm_motor_estimate/rm_motor_estimate.o
                0x000021f0                RM_MOTOR_ESTIMATE_AngleAdjust
 .text.RM_MOTOR_ESTIMATE_EncoderCyclic
                0x000021f4        0x4 ./ra/fsp/src/rm_motor_estimate/rm_motor_estimate.o
                0x000021f4                RM_MOTOR_ESTIMATE_EncoderCyclic
 .text.RM_MOTOR_DRIVER_PhaseVoltageSet
                0x000021f8       0x14 ./ra/fsp/src/rm_motor_driver/rm_motor_driver.o
                0x000021f8                RM_MOTOR_DRIVER_PhaseVoltageSet
 .text.RM_MOTOR_DRIVER_CurrentGet
                0x0000220c       0xac ./ra/fsp/src/rm_motor_driver/rm_motor_driver.o
                0x0000220c                RM_MOTOR_DRIVER_CurrentGet
 .text.RM_MOTOR_DRIVER_CurrentOffsetRestart
                0x000022b8       0x18 ./ra/fsp/src/rm_motor_driver/rm_motor_driver.o
                0x000022b8                RM_MOTOR_DRIVER_CurrentOffsetRestart
 .text.rm_motor_driver_pin_cfg
                0x000022d0       0x6c ./ra/fsp/src/rm_motor_driver/rm_motor_driver.o
 .text.rm_motor_driver_output_disable
                0x0000233c       0x74 ./ra/fsp/src/rm_motor_driver/rm_motor_driver.o
 .text.rm_motor_driver_mod_run
                0x000023b0      0x128 ./ra/fsp/src/rm_motor_driver/rm_motor_driver.o
 .text.rm_motor_driver_1shunt_modulation
                0x000024d8      0x224 ./ra/fsp/src/rm_motor_driver/rm_motor_driver.o
 .text.rm_motor_driver_1shunt_cyclic
                0x000026fc      0x290 ./ra/fsp/src/rm_motor_driver/rm_motor_driver.o
                0x000026fc                rm_motor_driver_1shunt_cyclic
 .text.rm_motor_driver_set_uvw_duty.isra.0
                0x0000298c       0x88 ./ra/fsp/src/rm_motor_driver/rm_motor_driver.o
 .text.RM_MOTOR_DRIVER_FlagCurrentOffsetGet
                0x00002a14      0x18c ./ra/fsp/src/rm_motor_driver/rm_motor_driver.o
                0x00002a14                RM_MOTOR_DRIVER_FlagCurrentOffsetGet
 .text.RM_MOTOR_DRIVER_Open
                0x00002ba0      0x224 ./ra/fsp/src/rm_motor_driver/rm_motor_driver.o
                0x00002ba0                RM_MOTOR_DRIVER_Open
 .text.rm_motor_driver_cyclic
                0x00002dc4      0x1c4 ./ra/fsp/src/rm_motor_driver/rm_motor_driver.o
                0x00002dc4                rm_motor_driver_cyclic
 .text.RM_MOTOR_DRIVER_ParameterUpdate
                0x00002f88       0xbc ./ra/fsp/src/rm_motor_driver/rm_motor_driver.o
                0x00002f88                RM_MOTOR_DRIVER_ParameterUpdate
 .text.RM_MOTOR_DRIVER_Reset
                0x00003044       0x64 ./ra/fsp/src/rm_motor_driver/rm_motor_driver.o
                0x00003044                RM_MOTOR_DRIVER_Reset
 .text.RM_MOTOR_DRIVER_Close
                0x000030a8       0x7c ./ra/fsp/src/rm_motor_driver/rm_motor_driver.o
                0x000030a8                RM_MOTOR_DRIVER_Close
 .text.RM_MOTOR_CURRENT_Run
                0x00003124        0xc ./ra/fsp/src/rm_motor_current/rm_motor_current.o
                0x00003124                RM_MOTOR_CURRENT_Run
 .text.RM_MOTOR_CURRENT_ParameterSet
                0x00003130       0x20 ./ra/fsp/src/rm_motor_current/rm_motor_current.o
                0x00003130                RM_MOTOR_CURRENT_ParameterSet
 .text.RM_MOTOR_CURRENT_CurrentReferenceSet
                0x00003150       0x10 ./ra/fsp/src/rm_motor_current/rm_motor_current.o
                0x00003150                RM_MOTOR_CURRENT_CurrentReferenceSet
 .text.RM_MOTOR_CURRENT_SpeedPhaseSet
                0x00003160       0x10 ./ra/fsp/src/rm_motor_current/rm_motor_current.o
                0x00003160                RM_MOTOR_CURRENT_SpeedPhaseSet
 .text.RM_MOTOR_CURRENT_CurrentSet
                0x00003170       0x28 ./ra/fsp/src/rm_motor_current/rm_motor_current.o
                0x00003170                RM_MOTOR_CURRENT_CurrentSet
 .text.RM_MOTOR_CURRENT_ParameterGet
                0x00003198       0xd0 ./ra/fsp/src/rm_motor_current/rm_motor_current.o
                0x00003198                RM_MOTOR_CURRENT_ParameterGet
 .text.RM_MOTOR_CURRENT_CurrentGet
                0x00003268       0x80 ./ra/fsp/src/rm_motor_current/rm_motor_current.o
                0x00003268                RM_MOTOR_CURRENT_CurrentGet
 .text.motor_current_transform_dq_uvw_abs
                0x000032e8       0x90 ./ra/fsp/src/rm_motor_current/rm_motor_current.o
 .text.RM_MOTOR_CURRENT_Open
                0x00003378       0xf0 ./ra/fsp/src/rm_motor_current/rm_motor_current.o
                0x00003378                RM_MOTOR_CURRENT_Open
 .text.RM_MOTOR_CURRENT_ParameterUpdate
                0x00003468       0x40 ./ra/fsp/src/rm_motor_current/rm_motor_current.o
                0x00003468                RM_MOTOR_CURRENT_ParameterUpdate
 .text.RM_MOTOR_CURRENT_Reset
                0x000034a8       0x5c ./ra/fsp/src/rm_motor_current/rm_motor_current.o
                0x000034a8                RM_MOTOR_CURRENT_Reset
 .text.RM_MOTOR_CURRENT_Close
                0x00003504       0x58 ./ra/fsp/src/rm_motor_current/rm_motor_current.o
                0x00003504                RM_MOTOR_CURRENT_Close
 .text.RM_MOTOR_CURRENT_PhaseVoltageGet
                0x0000355c      0x240 ./ra/fsp/src/rm_motor_current/rm_motor_current.o
                0x0000355c                RM_MOTOR_CURRENT_PhaseVoltageGet
 .text.rm_motor_current_cyclic
                0x0000379c      0x24c ./ra/fsp/src/rm_motor_current/rm_motor_current.o
                0x0000379c                rm_motor_current_cyclic
 .text.R_POEG_Open
                0x000039e8       0xc8 ./ra/fsp/src/r_poeg/r_poeg.o
                0x000039e8                R_POEG_Open
 .text.R_POEG_OutputDisable
                0x00003ab0       0x10 ./ra/fsp/src/r_poeg/r_poeg.o
                0x00003ab0                R_POEG_OutputDisable
 .text.R_POEG_Reset
                0x00003ac0       0x14 ./ra/fsp/src/r_poeg/r_poeg.o
                0x00003ac0                R_POEG_Reset
 .text.R_POEG_StatusGet
                0x00003ad4       0x14 ./ra/fsp/src/r_poeg/r_poeg.o
                0x00003ad4                R_POEG_StatusGet
 .text.R_POEG_CallbackSet
                0x00003ae8       0x10 ./ra/fsp/src/r_poeg/r_poeg.o
                0x00003ae8                R_POEG_CallbackSet
 .text.R_POEG_Close
                0x00003af8       0x54 ./ra/fsp/src/r_poeg/r_poeg.o
                0x00003af8                R_POEG_Close
 .text.poeg_event_isr
                0x00003b4c       0x54 ./ra/fsp/src/r_poeg/r_poeg.o
                0x00003b4c                poeg_event_isr
 .text.R_IOPORT_Close
                0x00003ba0        0xc ./ra/fsp/src/r_ioport/r_ioport.o
                0x00003ba0                R_IOPORT_Close
 .text.R_IOPORT_PinRead
                0x00003bac       0x24 ./ra/fsp/src/r_ioport/r_ioport.o
                0x00003bac                R_IOPORT_PinRead
 .text.R_IOPORT_PortRead
                0x00003bd0       0x14 ./ra/fsp/src/r_ioport/r_ioport.o
                0x00003bd0                R_IOPORT_PortRead
 .text.R_IOPORT_PortWrite
                0x00003be4       0x1c ./ra/fsp/src/r_ioport/r_ioport.o
                0x00003be4                R_IOPORT_PortWrite
 .text.R_IOPORT_PinWrite
                0x00003c00       0x20 ./ra/fsp/src/r_ioport/r_ioport.o
                0x00003c00                R_IOPORT_PinWrite
 .text.R_IOPORT_PortDirectionSet
                0x00003c20       0x2c ./ra/fsp/src/r_ioport/r_ioport.o
                0x00003c20                R_IOPORT_PortDirectionSet
 .text.R_IOPORT_PortEventInputRead
                0x00003c4c       0x18 ./ra/fsp/src/r_ioport/r_ioport.o
                0x00003c4c                R_IOPORT_PortEventInputRead
 .text.R_IOPORT_PinEventInputRead
                0x00003c64       0x38 ./ra/fsp/src/r_ioport/r_ioport.o
                0x00003c64                R_IOPORT_PinEventInputRead
 .text.R_IOPORT_PortEventOutputWrite
                0x00003c9c       0x1c ./ra/fsp/src/r_ioport/r_ioport.o
                0x00003c9c                R_IOPORT_PortEventOutputWrite
 .text.R_IOPORT_PinEventOutputWrite
                0x00003cb8       0x2c ./ra/fsp/src/r_ioport/r_ioport.o
                0x00003cb8                R_IOPORT_PinEventOutputWrite
 .text.bsp_vbatt_init
                0x00003ce4       0xa4 ./ra/fsp/src/r_ioport/r_ioport.o
 .text.r_ioport_pins_config
                0x00003d88       0xc0 ./ra/fsp/src/r_ioport/r_ioport.o
 .text.R_IOPORT_Open
                0x00003e48       0x14 ./ra/fsp/src/r_ioport/r_ioport.o
                0x00003e48                R_IOPORT_Open
 .text.R_IOPORT_PinsCfg
                0x00003e5c        0xc ./ra/fsp/src/r_ioport/r_ioport.o
                0x00003e5c                R_IOPORT_PinsCfg
 .text.R_IOPORT_PinCfg
                0x00003e68       0xa8 ./ra/fsp/src/r_ioport/r_ioport.o
                0x00003e68                R_IOPORT_PinCfg
 .text.R_GPT_THREE_PHASE_Stop
                0x00003f10        0xc ./ra/fsp/src/r_gpt_three_phase/r_gpt_three_phase.o
                0x00003f10                R_GPT_THREE_PHASE_Stop
 .text.R_GPT_THREE_PHASE_Start
                0x00003f1c        0xc ./ra/fsp/src/r_gpt_three_phase/r_gpt_three_phase.o
                0x00003f1c                R_GPT_THREE_PHASE_Start
 .text.R_GPT_THREE_PHASE_Reset
                0x00003f28        0xc ./ra/fsp/src/r_gpt_three_phase/r_gpt_three_phase.o
                0x00003f28                R_GPT_THREE_PHASE_Reset
 .text.R_GPT_THREE_PHASE_DutyCycleSet
                0x00003f34       0x3c ./ra/fsp/src/r_gpt_three_phase/r_gpt_three_phase.o
                0x00003f34                R_GPT_THREE_PHASE_DutyCycleSet
 .text.R_GPT_THREE_PHASE_Open
                0x00003f70       0x50 ./ra/fsp/src/r_gpt_three_phase/r_gpt_three_phase.o
                0x00003f70                R_GPT_THREE_PHASE_Open
 .text.R_GPT_THREE_PHASE_CallbackSet
                0x00003fc0       0x14 ./ra/fsp/src/r_gpt_three_phase/r_gpt_three_phase.o
                0x00003fc0                R_GPT_THREE_PHASE_CallbackSet
 .text.R_GPT_THREE_PHASE_Close
                0x00003fd4       0x28 ./ra/fsp/src/r_gpt_three_phase/r_gpt_three_phase.o
                0x00003fd4                R_GPT_THREE_PHASE_Close
 .text.R_GPT_Stop
                0x00003ffc        0xc ./ra/fsp/src/r_gpt/r_gpt.o
                0x00003ffc                R_GPT_Stop
 .text.R_GPT_Start
                0x00004008        0xc ./ra/fsp/src/r_gpt/r_gpt.o
                0x00004008                R_GPT_Start
 .text.R_GPT_Reset
                0x00004014        0xc ./ra/fsp/src/r_gpt/r_gpt.o
                0x00004014                R_GPT_Reset
 .text.R_GPT_Enable
                0x00004020       0x30 ./ra/fsp/src/r_gpt/r_gpt.o
                0x00004020                R_GPT_Enable
 .text.R_GPT_Disable
                0x00004050       0x18 ./ra/fsp/src/r_gpt/r_gpt.o
                0x00004050                R_GPT_Disable
 .text.R_GPT_PeriodSet
                0x00004068       0x3c ./ra/fsp/src/r_gpt/r_gpt.o
                0x00004068                R_GPT_PeriodSet
 .text.R_GPT_CompareMatchSet
                0x000040a4       0x14 ./ra/fsp/src/r_gpt/r_gpt.o
                0x000040a4                R_GPT_CompareMatchSet
 .text.R_GPT_StatusGet
                0x000040b8       0x14 ./ra/fsp/src/r_gpt/r_gpt.o
                0x000040b8                R_GPT_StatusGet
 .text.R_GPT_CallbackSet
                0x000040cc       0x10 ./ra/fsp/src/r_gpt/r_gpt.o
                0x000040cc                R_GPT_CallbackSet
 .text.R_GPT_InfoGet
                0x000040dc       0x48 ./ra/fsp/src/r_gpt/r_gpt.o
                0x000040dc                R_GPT_InfoGet
 .text.gpt_calculate_duty_cycle.isra.0
                0x00004124       0x78 ./ra/fsp/src/r_gpt/r_gpt.o
 .text.R_GPT_DutyCycleSet
                0x0000419c       0xc0 ./ra/fsp/src/r_gpt/r_gpt.o
                0x0000419c                R_GPT_DutyCycleSet
 .text.r_gpt_enable_irq
                0x0000425c       0x64 ./ra/fsp/src/r_gpt/r_gpt.o
 .text.R_GPT_Open
                0x000042c0      0x2f0 ./ra/fsp/src/r_gpt/r_gpt.o
                0x000042c0                R_GPT_Open
 .text.R_GPT_Close
                0x000045b0       0xcc ./ra/fsp/src/r_gpt/r_gpt.o
                0x000045b0                R_GPT_Close
 .text.R_GPT_OutputEnable
                0x0000467c       0x20 ./ra/fsp/src/r_gpt/r_gpt.o
                0x0000467c                R_GPT_OutputEnable
 .text.R_GPT_OutputDisable
                0x0000469c       0x20 ./ra/fsp/src/r_gpt/r_gpt.o
                0x0000469c                R_GPT_OutputDisable
 .text.R_GPT_AdcTriggerSet
                0x000046bc       0x10 ./ra/fsp/src/r_gpt/r_gpt.o
                0x000046bc                R_GPT_AdcTriggerSet
 .text.R_ELC_Open
                0x000046cc       0x58 ./ra/fsp/src/r_elc/r_elc.o
                0x000046cc                R_ELC_Open
 .text.R_ELC_Close
                0x00004724       0x14 ./ra/fsp/src/r_elc/r_elc.o
                0x00004724                R_ELC_Close
 .text.R_ELC_SoftwareEventGenerate
                0x00004738       0x1c ./ra/fsp/src/r_elc/r_elc.o
                0x00004738                R_ELC_SoftwareEventGenerate
 .text.R_ELC_LinkSet
                0x00004754       0x10 ./ra/fsp/src/r_elc/r_elc.o
                0x00004754                R_ELC_LinkSet
 .text.R_ELC_LinkBreak
                0x00004764       0x10 ./ra/fsp/src/r_elc/r_elc.o
                0x00004764                R_ELC_LinkBreak
 .text.R_ELC_Enable
                0x00004774       0x10 ./ra/fsp/src/r_elc/r_elc.o
                0x00004774                R_ELC_Enable
 .text.R_ELC_Disable
                0x00004784        0xc ./ra/fsp/src/r_elc/r_elc.o
                0x00004784                R_ELC_Disable
 .text.R_AGT_Stop
                0x00004790       0x24 ./ra/fsp/src/r_agt/r_agt.o
                0x00004790                R_AGT_Stop
 .text.R_AGT_Enable
                0x000047b4       0x28 ./ra/fsp/src/r_agt/r_agt.o
                0x000047b4                R_AGT_Enable
 .text.R_AGT_Disable
                0x000047dc       0x1c ./ra/fsp/src/r_agt/r_agt.o
                0x000047dc                R_AGT_Disable
 .text.R_AGT_DutyCycleSet
                0x000047f8        0x4 ./ra/fsp/src/r_agt/r_agt.o
                0x000047f8                R_AGT_DutyCycleSet
 .text.R_AGT_CompareMatchSet
                0x000047fc        0x4 ./ra/fsp/src/r_agt/r_agt.o
                0x000047fc                R_AGT_CompareMatchSet
 .text.R_AGT_StatusGet
                0x00004800       0x44 ./ra/fsp/src/r_agt/r_agt.o
                0x00004800                R_AGT_StatusGet
 .text.R_AGT_CallbackSet
                0x00004844       0x10 ./ra/fsp/src/r_agt/r_agt.o
                0x00004844                R_AGT_CallbackSet
 .text.R_AGT_Close
                0x00004854       0x8c ./ra/fsp/src/r_agt/r_agt.o
                0x00004854                R_AGT_Close
 .text.R_AGT_Start
                0x000048e0       0x70 ./ra/fsp/src/r_agt/r_agt.o
                0x000048e0                R_AGT_Start
 .text.r_agt_clock_frequency_get
                0x00004950       0x4c ./ra/fsp/src/r_agt/r_agt.o
 .text.R_AGT_InfoGet
                0x0000499c       0x98 ./ra/fsp/src/r_agt/r_agt.o
                0x0000499c                R_AGT_InfoGet
 .text.R_AGT_Reset
                0x00004a34       0x3c ./ra/fsp/src/r_agt/r_agt.o
                0x00004a34                R_AGT_Reset
 .text.R_AGT_PeriodSet
                0x00004a70       0x5c ./ra/fsp/src/r_agt/r_agt.o
                0x00004a70                R_AGT_PeriodSet
 .text.R_AGT_Open
                0x00004acc      0x198 ./ra/fsp/src/r_agt/r_agt.o
                0x00004acc                R_AGT_Open
 .text.agt_int_isr
                0x00004c64       0x9c ./ra/fsp/src/r_agt/r_agt.o
                0x00004c64                agt_int_isr
 .text.R_ADC_CallbackSet
                0x00004d00       0x10 ./ra/fsp/src/r_adc/r_adc.o
                0x00004d00                R_ADC_CallbackSet
 .text.R_ADC_ScanStart
                0x00004d10        0xc ./ra/fsp/src/r_adc/r_adc.o
                0x00004d10                R_ADC_ScanStart
 .text.R_ADC_ScanGroupStart
                0x00004d1c        0x4 ./ra/fsp/src/r_adc/r_adc.o
                0x00004d1c                R_ADC_ScanGroupStart
 .text.R_ADC_ScanStop
                0x00004d20        0xc ./ra/fsp/src/r_adc/r_adc.o
                0x00004d20                R_ADC_ScanStop
 .text.R_ADC_StatusGet
                0x00004d2c       0x10 ./ra/fsp/src/r_adc/r_adc.o
                0x00004d2c                R_ADC_StatusGet
 .text.R_ADC_Read
                0x00004d3c       0x10 ./ra/fsp/src/r_adc/r_adc.o
                0x00004d3c                R_ADC_Read
 .text.R_ADC_Read32
                0x00004d4c       0x1c ./ra/fsp/src/r_adc/r_adc.o
                0x00004d4c                R_ADC_Read32
 .text.R_ADC_Calibrate
                0x00004d68        0x4 ./ra/fsp/src/r_adc/r_adc.o
                0x00004d68                R_ADC_Calibrate
 .text.R_ADC_OffsetSet
                0x00004d6c        0x4 ./ra/fsp/src/r_adc/r_adc.o
                0x00004d6c                R_ADC_OffsetSet
 .text.r_adc_irq_enable
                0x00004d70       0x64 ./ra/fsp/src/r_adc/r_adc.o
 .text.R_ADC_Open
                0x00004dd4      0x124 ./ra/fsp/src/r_adc/r_adc.o
                0x00004dd4                R_ADC_Open
 .text.r_adc_call_callback
                0x00004ef8       0x54 ./ra/fsp/src/r_adc/r_adc.o
 .text.r_adc_scan_end_common_isr
                0x00004f4c       0x5c ./ra/fsp/src/r_adc/r_adc.o
 .text.R_ADC_InfoGet
                0x00004fa8       0x74 ./ra/fsp/src/r_adc/r_adc.o
                0x00004fa8                R_ADC_InfoGet
 .text.R_ADC_ScanCfg
                0x0000501c      0x1f4 ./ra/fsp/src/r_adc/r_adc.o
                0x0000501c                R_ADC_ScanCfg
 .text.R_ADC_Close
                0x00005210       0xf8 ./ra/fsp/src/r_adc/r_adc.o
                0x00005210                R_ADC_Close
 .text.adc_scan_end_isr
                0x00005308        0x8 ./ra/fsp/src/r_adc/r_adc.o
                0x00005308                adc_scan_end_isr
 .text.SystemCoreClockUpdate
                0x00005310       0x28 ./ra/fsp/src/bsp/mcu/all/bsp_clocks.o
                0x00005310                SystemCoreClockUpdate
 .text.bsp_clock_init
                0x00005338       0xf8 ./ra/fsp/src/bsp/mcu/all/bsp_clocks.o
                0x00005338                bsp_clock_init
 .text.R_BSP_Init_RTC
                0x00005430       0x10 ./ra/fsp/src/bsp/mcu/all/bsp_clocks.o
                0x00005430                R_BSP_Init_RTC
 .text.bsp_prv_software_delay_loop
                0x00005440        0xc ./ra/fsp/src/bsp/mcu/all/bsp_delay.o
                0x00005440                bsp_prv_software_delay_loop
 .text.R_BSP_SoftwareDelay
                0x0000544c       0x68 ./ra/fsp/src/bsp/mcu/all/bsp_delay.o
                0x0000544c                R_BSP_SoftwareDelay
 .text.NMI_Handler
                0x000054b4       0x3c ./ra/fsp/src/bsp/mcu/all/bsp_group_irq.o
                0x000054b4                NMI_Handler
 .text.bsp_irq_cfg
                0x000054f0       0xa4 ./ra/fsp/src/bsp/mcu/all/bsp_irq.o
                0x000054f0                bsp_irq_cfg
 .text.R_BSP_RegisterProtectEnable
                0x00005594       0x60 ./ra/fsp/src/bsp/mcu/all/bsp_register_protection.o
                0x00005594                R_BSP_RegisterProtectEnable
 .text.R_BSP_RegisterProtectDisable
                0x000055f4       0x54 ./ra/fsp/src/bsp/mcu/all/bsp_register_protection.o
                0x000055f4                R_BSP_RegisterProtectDisable
 .text.Default_Handler
                0x00005648        0x4 ./ra/fsp/src/bsp/cmsis/Device/RENESAS/Source/startup.o
                0x00005648                DebugMon_Handler
                0x00005648                HardFault_Handler
                0x00005648                SysTick_Handler
                0x00005648                PendSV_Handler
                0x00005648                UsageFault_Handler
                0x00005648                SecureFault_Handler
                0x00005648                Default_Handler
                0x00005648                MemManage_Handler
                0x00005648                SVC_Handler
                0x00005648                BusFault_Handler
 .text.Reset_Handler
                0x0000564c        0xc ./ra/fsp/src/bsp/cmsis/Device/RENESAS/Source/startup.o
                0x0000564c                Reset_Handler
 .text.SystemInit
                0x00005658       0xfc ./ra/fsp/src/bsp/cmsis/Device/RENESAS/Source/system.o
                0x00005658                SystemInit
 .text.bsp_init
                0x00005754        0x4 ./ra/board/ra6t3_mck/board_init.o
                0x00005754                bsp_init
 .text.ics2_watchpoint
                0x00005758      0x5d8 C:/Users/a5143778/e2_studio/customized_workspace/RA6T3_MCILV1_SPM_LESS_FOC_E2S_V101/src/application/user_interface/ics/ICS2_RA6T3.o
                0x00005758                ics2_watchpoint
 .text.ics2_init
                0x00005d30      0x264 C:/Users/a5143778/e2_studio/customized_workspace/RA6T3_MCILV1_SPM_LESS_FOC_E2S_V101/src/application/user_interface/ics/ICS2_RA6T3.o
                0x00005d30                ics2_init
 .text.rm_motor_current_pi_gain_calc
                0x00005f94       0x5c C:\Users\a5143778\e2_studio\customized_workspace\RA6T3_MCILV1_SPM_LESS_FOC_E2S_V101\ra\fsp\lib\rm_motor_current\cm33_gcc\librm_motor_current.a(rm_motor_current_pi_gain_calc.o)
                0x00005f94                rm_motor_current_pi_gain_calc
 .text.rm_motor_voltage_error_compensation_init
                0x00005ff0       0x64 C:\Users\a5143778\e2_studio\customized_workspace\RA6T3_MCILV1_SPM_LESS_FOC_E2S_V101\ra\fsp\lib\rm_motor_current\cm33_gcc\librm_motor_current.a(rm_motor_volt_error_comp.o)
                0x00005ff0                rm_motor_voltage_error_compensation_init
 .text.rm_motor_voltage_error_compensation_reset
                0x00006054        0xc C:\Users\a5143778\e2_studio\customized_workspace\RA6T3_MCILV1_SPM_LESS_FOC_E2S_V101\ra\fsp\lib\rm_motor_current\cm33_gcc\librm_motor_current.a(rm_motor_volt_error_comp.o)
                0x00006054                rm_motor_voltage_error_compensation_reset
 .text.rm_motor_voltage_error_compensation_main
                0x00006060      0x250 C:\Users\a5143778\e2_studio\customized_workspace\RA6T3_MCILV1_SPM_LESS_FOC_E2S_V101\ra\fsp\lib\rm_motor_current\cm33_gcc\librm_motor_current.a(rm_motor_volt_error_comp.o)
                0x00006060                rm_motor_voltage_error_compensation_main
 .text.rm_motor_estimate_bemf_observer
                0x000062b0      0x118 C:\Users\a5143778\e2_studio\customized_workspace\RA6T3_MCILV1_SPM_LESS_FOC_E2S_V101\ra\fsp\lib\rm_motor_estimate\cm33_gcc\librm_motor_estimate.a(rm_motor_estimate_bemf_observer.o)
                0x000062b0                rm_motor_estimate_bemf_observer
 .text.rm_motor_estimate_bemf_calc_d
                0x000063c8       0x18 C:\Users\a5143778\e2_studio\customized_workspace\RA6T3_MCILV1_SPM_LESS_FOC_E2S_V101\ra\fsp\lib\rm_motor_estimate\cm33_gcc\librm_motor_estimate.a(rm_motor_estimate_bemf_observer.o)
                0x000063c8                rm_motor_estimate_bemf_calc_d
 .text.rm_motor_estimate_bemf_calc_q
                0x000063e0       0x18 C:\Users\a5143778\e2_studio\customized_workspace\RA6T3_MCILV1_SPM_LESS_FOC_E2S_V101\ra\fsp\lib\rm_motor_estimate\cm33_gcc\librm_motor_estimate.a(rm_motor_estimate_bemf_observer.o)
                0x000063e0                rm_motor_estimate_bemf_calc_q
 .text.rm_motor_estimate_bemf_obs_reset
                0x000063f8       0x14 C:\Users\a5143778\e2_studio\customized_workspace\RA6T3_MCILV1_SPM_LESS_FOC_E2S_V101\ra\fsp\lib\rm_motor_estimate\cm33_gcc\librm_motor_estimate.a(rm_motor_estimate_bemf_observer.o)
                0x000063f8                rm_motor_estimate_bemf_obs_reset
 .text.rm_motor_estimate_bemf_obs_init
                0x0000640c       0x40 C:\Users\a5143778\e2_studio\customized_workspace\RA6T3_MCILV1_SPM_LESS_FOC_E2S_V101\ra\fsp\lib\rm_motor_estimate\cm33_gcc\librm_motor_estimate.a(rm_motor_estimate_bemf_observer.o)
                0x0000640c                rm_motor_estimate_bemf_obs_init
 .text.rm_motor_estimate_bemf_observer_gain_calc
                0x0000644c       0x7c C:\Users\a5143778\e2_studio\customized_workspace\RA6T3_MCILV1_SPM_LESS_FOC_E2S_V101\ra\fsp\lib\rm_motor_estimate\cm33_gcc\librm_motor_estimate.a(rm_motor_estimate_bemf_observer.o)
                0x0000644c                rm_motor_estimate_bemf_observer_gain_calc
 .text.rm_motor_estimate_speed_pll
                0x000064c8       0x28 C:\Users\a5143778\e2_studio\customized_workspace\RA6T3_MCILV1_SPM_LESS_FOC_E2S_V101\ra\fsp\lib\rm_motor_estimate\cm33_gcc\librm_motor_estimate.a(rm_motor_estimate_bemf_observer.o)
                0x000064c8                rm_motor_estimate_speed_pll
 .text.rm_motor_estimate_speed_gain_calc
                0x000064f0       0x30 C:\Users\a5143778\e2_studio\customized_workspace\RA6T3_MCILV1_SPM_LESS_FOC_E2S_V101\ra\fsp\lib\rm_motor_estimate\cm33_gcc\librm_motor_estimate.a(rm_motor_estimate_bemf_observer.o)
                0x000064f0                rm_motor_estimate_speed_gain_calc
 .text.rm_motor_estimate_speed_reset
                0x00006520        0x8 C:\Users\a5143778\e2_studio\customized_workspace\RA6T3_MCILV1_SPM_LESS_FOC_E2S_V101\ra\fsp\lib\rm_motor_estimate\cm33_gcc\librm_motor_estimate.a(rm_motor_estimate_bemf_observer.o)
                0x00006520                rm_motor_estimate_speed_reset
 .text.rm_motor_speed_disturbance_observer_init
                0x00006528       0x6c C:\Users\a5143778\e2_studio\customized_workspace\RA6T3_MCILV1_SPM_LESS_FOC_E2S_V101\ra\fsp\lib\rm_motor_speed\cm33_gcc\librm_motor_speed.a(rm_motor_speed_disturbance_observer.o)
                0x00006528                rm_motor_speed_disturbance_observer_init
 .text.rm_motor_speed_disturbance_observer_reset
                0x00006594        0xc C:\Users\a5143778\e2_studio\customized_workspace\RA6T3_MCILV1_SPM_LESS_FOC_E2S_V101\ra\fsp\lib\rm_motor_speed\cm33_gcc\librm_motor_speed.a(rm_motor_speed_disturbance_observer.o)
                0x00006594                rm_motor_speed_disturbance_observer_reset
 .text.rm_motor_speed_disturbance_observer_run
                0x000065a0       0x7c C:\Users\a5143778\e2_studio\customized_workspace\RA6T3_MCILV1_SPM_LESS_FOC_E2S_V101\ra\fsp\lib\rm_motor_speed\cm33_gcc\librm_motor_speed.a(rm_motor_speed_disturbance_observer.o)
                0x000065a0                rm_motor_speed_disturbance_observer_run
 .text.rm_motor_speed_fluxwkn_reset
                0x0000661c       0x14 C:\Users\a5143778\e2_studio\customized_workspace\RA6T3_MCILV1_SPM_LESS_FOC_E2S_V101\ra\fsp\lib\rm_motor_speed\cm33_gcc\librm_motor_speed.a(rm_motor_speed_fluxwkn.o)
                0x0000661c                rm_motor_speed_fluxwkn_reset
 .text.rm_motor_speed_fluxwkn_run
                0x00006630      0x170 C:\Users\a5143778\e2_studio\customized_workspace\RA6T3_MCILV1_SPM_LESS_FOC_E2S_V101\ra\fsp\lib\rm_motor_speed\cm33_gcc\librm_motor_speed.a(rm_motor_speed_fluxwkn.o)
                0x00006630                rm_motor_speed_fluxwkn_run
 .text.rm_motor_speed_fluxwkn_set_motor
                0x000067a0       0x64 C:\Users\a5143778\e2_studio\customized_workspace\RA6T3_MCILV1_SPM_LESS_FOC_E2S_V101\ra\fsp\lib\rm_motor_speed\cm33_gcc\librm_motor_speed.a(rm_motor_speed_fluxwkn.o)
                0x000067a0                rm_motor_speed_fluxwkn_set_motor
 .text.rm_motor_speed_fluxwkn_init
                0x00006804       0x94 C:\Users\a5143778\e2_studio\customized_workspace\RA6T3_MCILV1_SPM_LESS_FOC_E2S_V101\ra\fsp\lib\rm_motor_speed\cm33_gcc\librm_motor_speed.a(rm_motor_speed_fluxwkn.o)
                0x00006804                rm_motor_speed_fluxwkn_init
 .text.rm_motor_speed_fluxwkn_set_vamax
                0x00006898       0x24 C:\Users\a5143778\e2_studio\customized_workspace\RA6T3_MCILV1_SPM_LESS_FOC_E2S_V101\ra\fsp\lib\rm_motor_speed\cm33_gcc\librm_motor_speed.a(rm_motor_speed_fluxwkn.o)
                0x00006898                rm_motor_speed_fluxwkn_set_vamax
 .text.rm_motor_speed_fluxwkn_check_bypass
                0x000068bc        0xc C:\Users\a5143778\e2_studio\customized_workspace\RA6T3_MCILV1_SPM_LESS_FOC_E2S_V101\ra\fsp\lib\rm_motor_speed\cm33_gcc\librm_motor_speed.a(rm_motor_speed_fluxwkn.o)
                0x000068bc                rm_motor_speed_fluxwkn_check_bypass
 .text.rm_motor_speed_pi_gain_calc
                0x000068c8       0x58 C:\Users\a5143778\e2_studio\customized_workspace\RA6T3_MCILV1_SPM_LESS_FOC_E2S_V101\ra\fsp\lib\rm_motor_speed\cm33_gcc\librm_motor_speed.a(rm_motor_speed_gain_calc.o)
                0x000068c8                rm_motor_speed_pi_gain_calc
 .text.rm_motor_speed_observer_init
                0x00006920       0x2c C:\Users\a5143778\e2_studio\customized_workspace\RA6T3_MCILV1_SPM_LESS_FOC_E2S_V101\ra\fsp\lib\rm_motor_speed\cm33_gcc\librm_motor_speed.a(rm_motor_speed_observer.o)
                0x00006920                rm_motor_speed_observer_init
 .text.rm_motor_speed_observer_reset
                0x0000694c       0x1c C:\Users\a5143778\e2_studio\customized_workspace\RA6T3_MCILV1_SPM_LESS_FOC_E2S_V101\ra\fsp\lib\rm_motor_speed\cm33_gcc\librm_motor_speed.a(rm_motor_speed_observer.o)
                0x0000694c                rm_motor_speed_observer_reset
 .text.rm_motor_speed_observer_gain_calc
                0x00006968       0xc0 C:\Users\a5143778\e2_studio\customized_workspace\RA6T3_MCILV1_SPM_LESS_FOC_E2S_V101\ra\fsp\lib\rm_motor_speed\cm33_gcc\librm_motor_speed.a(rm_motor_speed_observer.o)
                0x00006968                rm_motor_speed_observer_gain_calc
 .text.rm_motor_speed_observer
                0x00006a28       0xe0 C:\Users\a5143778\e2_studio\customized_workspace\RA6T3_MCILV1_SPM_LESS_FOC_E2S_V101\ra\fsp\lib\rm_motor_speed\cm33_gcc\librm_motor_speed.a(rm_motor_speed_observer.o)
                0x00006a28                rm_motor_speed_observer
 .text.rm_motor_speed_opl2less_iq_calc
                0x00006b08       0x30 C:\Users\a5143778\e2_studio\customized_workspace\RA6T3_MCILV1_SPM_LESS_FOC_E2S_V101\ra\fsp\lib\rm_motor_speed\cm33_gcc\librm_motor_speed.a(rm_motor_speed_opl2less.o)
                0x00006b08                rm_motor_speed_opl2less_iq_calc
 .text.rm_motor_speed_opl2less_torque_current_calc
                0x00006b38       0x50 C:\Users\a5143778\e2_studio\customized_workspace\RA6T3_MCILV1_SPM_LESS_FOC_E2S_V101\ra\fsp\lib\rm_motor_speed\cm33_gcc\librm_motor_speed.a(rm_motor_speed_opl2less.o)
                0x00006b38                rm_motor_speed_opl2less_torque_current_calc
 .text.rm_motor_speed_opl_damp_ctrl
                0x00006b88       0x84 C:\Users\a5143778\e2_studio\customized_workspace\RA6T3_MCILV1_SPM_LESS_FOC_E2S_V101\ra\fsp\lib\rm_motor_speed\cm33_gcc\librm_motor_speed.a(rm_motor_speed_opl_damp_ctrl.o)
                0x00006b88                rm_motor_speed_opl_damp_ctrl
 .text.rm_motor_speed_opl_damp_init
                0x00006c0c        0xc C:\Users\a5143778\e2_studio\customized_workspace\RA6T3_MCILV1_SPM_LESS_FOC_E2S_V101\ra\fsp\lib\rm_motor_speed\cm33_gcc\librm_motor_speed.a(rm_motor_speed_opl_damp_ctrl.o)
                0x00006c0c                rm_motor_speed_opl_damp_init
 .text.rm_motor_speed_opl_damp_reset
                0x00006c18        0x8 C:\Users\a5143778\e2_studio\customized_workspace\RA6T3_MCILV1_SPM_LESS_FOC_E2S_V101\ra\fsp\lib\rm_motor_speed\cm33_gcc\librm_motor_speed.a(rm_motor_speed_opl_damp_ctrl.o)
                0x00006c18                rm_motor_speed_opl_damp_reset
 .text.rm_motor_speed_opl_damp_r_set_gain
                0x00006c20       0xac C:\Users\a5143778\e2_studio\customized_workspace\RA6T3_MCILV1_SPM_LESS_FOC_E2S_V101\ra\fsp\lib\rm_motor_speed\cm33_gcc\librm_motor_speed.a(rm_motor_speed_opl_damp_ctrl.o)
                0x00006c20                rm_motor_speed_opl_damp_r_set_gain
 .text.rm_motor_speed_limitfabs
                0x00006ccc       0x24 C:\Users\a5143778\e2_studio\customized_workspace\RA6T3_MCILV1_SPM_LESS_FOC_E2S_V101\ra\fsp\lib\rm_motor_speed\cm33_gcc\librm_motor_speed.a(rm_motor_speed_opl_damp_ctrl.o)
                0x00006ccc                rm_motor_speed_limitfabs
 .text.rm_motor_speed_first_order_lpf
                0x00006cf0       0x2c C:\Users\a5143778\e2_studio\customized_workspace\RA6T3_MCILV1_SPM_LESS_FOC_E2S_V101\ra\fsp\lib\rm_motor_speed\cm33_gcc\librm_motor_speed.a(rm_motor_speed_opl_damp_ctrl.o)
                0x00006cf0                rm_motor_speed_first_order_lpf
 .text.__errno  0x00006d1c        0xc c:/program files (x86)/gnu arm embedded toolchain/10 2021.10/bin/../lib/gcc/arm-none-eabi/10.3.1/../../../../arm-none-eabi/lib/thumb/v8-m.main+fp/hard\libg_nano.a(lib_a-errno.o)
                0x00006d1c                __errno
 .text.memcpy   0x00006d28       0x1a c:/program files (x86)/gnu arm embedded toolchain/10 2021.10/bin/../lib/gcc/arm-none-eabi/10.3.1/../../../../arm-none-eabi/lib/thumb/v8-m.main+fp/hard\libg_nano.a(lib_a-memcpy-stub.o)
                0x00006d28                memcpy
 .text.memset   0x00006d42       0x10 c:/program files (x86)/gnu arm embedded toolchain/10 2021.10/bin/../lib/gcc/arm-none-eabi/10.3.1/../../../../arm-none-eabi/lib/thumb/v8-m.main+fp/hard\libg_nano.a(lib_a-memset.o)
                0x00006d42                memset
 *fill*         0x00006d52        0x2 ff
 .text.atanf    0x00006d54      0x1b0 c:/program files (x86)/gnu arm embedded toolchain/10 2021.10/bin/../lib/gcc/arm-none-eabi/10.3.1/../../../../arm-none-eabi/lib/thumb/v8-m.main+fp/hard\libm.a(lib_a-sf_atan.o)
                0x00006d54                atanf
 .text.cosf     0x00006f04       0x88 c:/program files (x86)/gnu arm embedded toolchain/10 2021.10/bin/../lib/gcc/arm-none-eabi/10.3.1/../../../../arm-none-eabi/lib/thumb/v8-m.main+fp/hard\libm.a(lib_a-sf_cos.o)
                0x00006f04                cosf
 .text.fabsf    0x00006f8c       0x10 c:/program files (x86)/gnu arm embedded toolchain/10 2021.10/bin/../lib/gcc/arm-none-eabi/10.3.1/../../../../arm-none-eabi/lib/thumb/v8-m.main+fp/hard\libm.a(lib_a-sf_fabs.o)
                0x00006f8c                fabsf
 .text.sinf     0x00006f9c       0x8c c:/program files (x86)/gnu arm embedded toolchain/10 2021.10/bin/../lib/gcc/arm-none-eabi/10.3.1/../../../../arm-none-eabi/lib/thumb/v8-m.main+fp/hard\libm.a(lib_a-sf_sin.o)
                0x00006f9c                sinf
 .text.sqrtf    0x00007028       0x44 c:/program files (x86)/gnu arm embedded toolchain/10 2021.10/bin/../lib/gcc/arm-none-eabi/10.3.1/../../../../arm-none-eabi/lib/thumb/v8-m.main+fp/hard\libm.a(lib_a-wf_sqrt.o)
                0x00007028                sqrtf
 .text.__ieee754_rem_pio2f
                0x0000706c      0x26c c:/program files (x86)/gnu arm embedded toolchain/10 2021.10/bin/../lib/gcc/arm-none-eabi/10.3.1/../../../../arm-none-eabi/lib/thumb/v8-m.main+fp/hard\libm.a(lib_a-ef_rem_pio2.o)
                0x0000706c                __ieee754_rem_pio2f
 .text.__ieee754_sqrtf
                0x000072d8        0x8 c:/program files (x86)/gnu arm embedded toolchain/10 2021.10/bin/../lib/gcc/arm-none-eabi/10.3.1/../../../../arm-none-eabi/lib/thumb/v8-m.main+fp/hard\libm.a(lib_a-ef_sqrt.o)
                0x000072d8                __ieee754_sqrtf
 .text.__kernel_cosf
                0x000072e0      0x104 c:/program files (x86)/gnu arm embedded toolchain/10 2021.10/bin/../lib/gcc/arm-none-eabi/10.3.1/../../../../arm-none-eabi/lib/thumb/v8-m.main+fp/hard\libm.a(lib_a-kf_cos.o)
                0x000072e0                __kernel_cosf
 .text.__kernel_rem_pio2f
                0x000073e4      0x67c c:/program files (x86)/gnu arm embedded toolchain/10 2021.10/bin/../lib/gcc/arm-none-eabi/10.3.1/../../../../arm-none-eabi/lib/thumb/v8-m.main+fp/hard\libm.a(lib_a-kf_rem_pio2.o)
                0x000073e4                __kernel_rem_pio2f
 .text.__kernel_sinf
                0x00007a60       0x90 c:/program files (x86)/gnu arm embedded toolchain/10 2021.10/bin/../lib/gcc/arm-none-eabi/10.3.1/../../../../arm-none-eabi/lib/thumb/v8-m.main+fp/hard\libm.a(lib_a-kf_sin.o)
                0x00007a60                __kernel_sinf
 .text.floorf   0x00007af0        0x8 c:/program files (x86)/gnu arm embedded toolchain/10 2021.10/bin/../lib/gcc/arm-none-eabi/10.3.1/../../../../arm-none-eabi/lib/thumb/v8-m.main+fp/hard\libm.a(lib_a-sf_floor.o)
                0x00007af0                floorf
 .text.scalbnf  0x00007af8       0xe0 c:/program files (x86)/gnu arm embedded toolchain/10 2021.10/bin/../lib/gcc/arm-none-eabi/10.3.1/../../../../arm-none-eabi/lib/thumb/v8-m.main+fp/hard\libm.a(lib_a-sf_scalbn.o)
                0x00007af8                scalbnf
 *(.version)
 .version       0x00007bd8       0x50 ./ra/fsp/src/bsp/mcu/all/bsp_common.o
 *(.init)
 .init          0x00007c28        0x4 c:/program files (x86)/gnu arm embedded toolchain/10 2021.10/bin/../lib/gcc/arm-none-eabi/10.3.1/thumb/v8-m.main+fp/hard/crti.o
                0x00007c28                _init
 .init          0x00007c2c        0x8 c:/program files (x86)/gnu arm embedded toolchain/10 2021.10/bin/../lib/gcc/arm-none-eabi/10.3.1/thumb/v8-m.main+fp/hard/crtn.o
 *(.fini)
 .fini          0x00007c34        0x4 c:/program files (x86)/gnu arm embedded toolchain/10 2021.10/bin/../lib/gcc/arm-none-eabi/10.3.1/thumb/v8-m.main+fp/hard/crti.o
                0x00007c34                _fini
 .fini          0x00007c38        0x8 c:/program files (x86)/gnu arm embedded toolchain/10 2021.10/bin/../lib/gcc/arm-none-eabi/10.3.1/thumb/v8-m.main+fp/hard/crtn.o
 *crtbegin.o(.ctors)
 *crtbegin?.o(.ctors)
 *(EXCLUDE_FILE(*crtend.o *crtend?.o) .ctors)
 *(SORT_BY_NAME(.ctors.*))
 *(.ctors)
 *crtbegin.o(.dtors)
 *crtbegin?.o(.dtors)
 *(EXCLUDE_FILE(*crtend.o *crtend?.o) .dtors)
 *(SORT_BY_NAME(.dtors.*))
 *(.dtors)
 *(.rodata*)
 .rodata.mtr_init.str1.4
                0x00007c40       0x4e ./src/application/main/mtr_main.o
 *fill*         0x00007c8e        0x2 ff
 .rodata.g_elc  0x00007c90        0xc ./ra_gen/common_data.o
                0x00007c90                g_elc
 .rodata.g_ioport
                0x00007c9c        0xc ./ra_gen/common_data.o
                0x00007c9c                g_ioport
 .rodata.g_elc_cfg
                0x00007ca8       0x34 ./ra_gen/elc_data.o
                0x00007ca8                g_elc_cfg
 .rodata.g_adc0
                0x00007cdc       0x10 ./ra_gen/hal_data.o
                0x00007cdc                g_adc0
 .rodata.g_adc0_cfg
                0x00007cec       0x18 ./ra_gen/hal_data.o
                0x00007cec                g_adc0_cfg
 .rodata.g_adc0_cfg_extend
                0x00007d04        0xb ./ra_gen/hal_data.o
                0x00007d04                g_adc0_cfg_extend
 *fill*         0x00007d0f        0x1 ff
 .rodata.g_adc0_channel_cfg
                0x00007d10       0x14 ./ra_gen/hal_data.o
                0x00007d10                g_adc0_channel_cfg
 .rodata.g_motor_angle0
                0x00007d24        0xc ./ra_gen/hal_data.o
                0x00007d24                g_motor_angle0
 .rodata.g_motor_angle0_cfg
                0x00007d30        0x8 ./ra_gen/hal_data.o
                0x00007d30                g_motor_angle0_cfg
 .rodata.g_motor_angle0_extend
                0x00007d38       0x34 ./ra_gen/hal_data.o
                0x00007d38                g_motor_angle0_extend
 .rodata.g_motor_current0
                0x00007d6c        0xc ./ra_gen/hal_data.o
                0x00007d6c                g_motor_current0
 .rodata.g_motor_current0_cfg
                0x00007d78       0x14 ./ra_gen/hal_data.o
                0x00007d78                g_motor_current0_cfg
 .rodata.g_motor_current0_extend
                0x00007d8c       0x44 ./ra_gen/hal_data.o
                0x00007d8c                g_motor_current0_extend
 .rodata.g_motor_driver0
                0x00007dd0        0xc ./ra_gen/hal_data.o
                0x00007dd0                g_motor_driver0
 .rodata.g_motor_driver0_cfg
                0x00007ddc       0x24 ./ra_gen/hal_data.o
                0x00007ddc                g_motor_driver0_cfg
 .rodata.g_motor_driver0_extend
                0x00007e00       0x70 ./ra_gen/hal_data.o
                0x00007e00                g_motor_driver0_extend
 .rodata.g_motor_sensorless0
                0x00007e70        0xc ./ra_gen/hal_data.o
                0x00007e70                g_motor_sensorless0
 .rodata.g_motor_sensorless0_cfg
                0x00007e7c       0x14 ./ra_gen/hal_data.o
                0x00007e7c                g_motor_sensorless0_cfg
 .rodata.g_motor_sensorless0_extend
                0x00007e90       0x10 ./ra_gen/hal_data.o
                0x00007e90                g_motor_sensorless0_extend
 .rodata.g_motor_speed0
                0x00007ea0        0xc ./ra_gen/hal_data.o
                0x00007ea0                g_motor_speed0
 .rodata.g_motor_speed0_cfg
                0x00007eac       0x1c ./ra_gen/hal_data.o
                0x00007eac                g_motor_speed0_cfg
 .rodata.g_motor_speed0_extend
                0x00007ec8       0xa0 ./ra_gen/hal_data.o
                0x00007ec8                g_motor_speed0_extend
 .rodata.g_poeg0
                0x00007f68        0xc ./ra_gen/hal_data.o
                0x00007f68                g_poeg0
 .rodata.g_poeg0_cfg
                0x00007f74       0x18 ./ra_gen/hal_data.o
                0x00007f74                g_poeg0_cfg
 .rodata.g_three_phase0
                0x00007f8c        0xc ./ra_gen/hal_data.o
                0x00007f8c                g_three_phase0
 .rodata.g_three_phase0_cfg
                0x00007f98       0x20 ./ra_gen/hal_data.o
                0x00007f98                g_three_phase0_cfg
 .rodata.g_timer0
                0x00007fb8        0xc ./ra_gen/hal_data.o
                0x00007fb8                g_timer0
 .rodata.g_timer0_cfg
                0x00007fc4       0x20 ./ra_gen/hal_data.o
                0x00007fc4                g_timer0_cfg
 .rodata.g_timer0_extend
                0x00007fe4       0x3c ./ra_gen/hal_data.o
                0x00007fe4                g_timer0_extend
 .rodata.g_timer0_pwm_extend
                0x00008020       0x20 ./ra_gen/hal_data.o
                0x00008020                g_timer0_pwm_extend
 .rodata.g_timer1
                0x00008040        0xc ./ra_gen/hal_data.o
                0x00008040                g_timer1
 .rodata.g_timer1_cfg
                0x0000804c       0x20 ./ra_gen/hal_data.o
                0x0000804c                g_timer1_cfg
 .rodata.g_timer1_extend
                0x0000806c       0x3c ./ra_gen/hal_data.o
                0x0000806c                g_timer1_extend
 .rodata.g_timer1_pwm_extend
                0x000080a8       0x20 ./ra_gen/hal_data.o
                0x000080a8                g_timer1_pwm_extend
 .rodata.g_timer2
                0x000080c8        0xc ./ra_gen/hal_data.o
                0x000080c8                g_timer2
 .rodata.g_timer2_cfg
                0x000080d4       0x20 ./ra_gen/hal_data.o
                0x000080d4                g_timer2_cfg
 .rodata.g_timer2_extend
                0x000080f4       0x3c ./ra_gen/hal_data.o
                0x000080f4                g_timer2_extend
 .rodata.g_timer2_pwm_extend
                0x00008130       0x20 ./ra_gen/hal_data.o
                0x00008130                g_timer2_pwm_extend
 .rodata.g_timer3
                0x00008150        0xc ./ra_gen/hal_data.o
                0x00008150                g_timer3
 .rodata.g_timer3_cfg
                0x0000815c       0x20 ./ra_gen/hal_data.o
                0x0000815c                g_timer3_cfg
 .rodata.g_timer3_extend
                0x0000817c        0x8 ./ra_gen/hal_data.o
                0x0000817c                g_timer3_extend
 .rodata.g_bsp_pin_cfg
                0x00008184        0xc ./ra_gen/pin_data.o
                0x00008184                g_bsp_pin_cfg
 .rodata.g_bsp_pin_cfg_data
                0x00008190      0x148 ./ra_gen/pin_data.o
                0x00008190                g_bsp_pin_cfg_data
 .rodata.g_interrupt_event_link_select
                0x000082d8       0xc0 ./ra_gen/vector_data.o
                0x000082d8                g_interrupt_event_link_select
 .rodata.g_motor_speed_on_motor_speed
                0x00008398       0x28 ./ra/fsp/src/rm_motor_speed/rm_motor_speed.o
                0x00008398                g_motor_speed_on_motor_speed
 .rodata.g_motor_on_sensorless
                0x000083c0       0x38 ./ra/fsp/src/rm_motor_sensorless/rm_motor_sensorless.o
                0x000083c0                g_motor_on_sensorless
 .rodata.motor_sensorless_action_table
                0x000083f8       0x30 ./ra/fsp/src/rm_motor_sensorless/rm_motor_sensorless.o
 .rodata.state_transition_table
                0x00008428        0xc ./ra/fsp/src/rm_motor_sensorless/rm_motor_sensorless.o
 .rodata.g_motor_angle_on_motor_estimate
                0x00008434       0x3c ./ra/fsp/src/rm_motor_estimate/rm_motor_estimate.o
                0x00008434                g_motor_angle_on_motor_estimate
 .rodata.g_motor_driver_on_motor_driver
                0x00008470       0x20 ./ra/fsp/src/rm_motor_driver/rm_motor_driver.o
                0x00008470                g_motor_driver_on_motor_driver
 .rodata.g_motor_current_on_motor_current
                0x00008490       0x30 ./ra/fsp/src/rm_motor_current/rm_motor_current.o
                0x00008490                g_motor_current_on_motor_current
 .rodata.g_poeg_on_poeg
                0x000084c0       0x18 ./ra/fsp/src/r_poeg/r_poeg.o
                0x000084c0                g_poeg_on_poeg
 .rodata.g_ioport_on_ioport
                0x000084d8       0x34 ./ra/fsp/src/r_ioport/r_ioport.o
                0x000084d8                g_ioport_on_ioport
 .rodata.g_vbatt_pins_input
                0x0000850c        0x6 ./ra/fsp/src/r_ioport/r_ioport.o
 *fill*         0x00008512        0x2 ff
 .rodata.g_gpt_three_phase_on_gpt_three_phase
                0x00008514       0x1c ./ra/fsp/src/r_gpt_three_phase/r_gpt_three_phase.o
                0x00008514                g_gpt_three_phase_on_gpt_three_phase
 .rodata.g_timer_on_gpt
                0x00008530       0x34 ./ra/fsp/src/r_gpt/r_gpt.o
                0x00008530                g_timer_on_gpt
 .rodata.g_elc_on_elc
                0x00008564       0x1c ./ra/fsp/src/r_elc/r_elc.o
                0x00008564                g_elc_on_elc
 .rodata.g_timer_on_agt
                0x00008580       0x34 ./ra/fsp/src/r_agt/r_agt.o
                0x00008580                g_timer_on_agt
 .rodata.g_adc_on_adc
                0x000085b4       0x34 ./ra/fsp/src/r_adc/r_adc.o
                0x000085b4                g_adc_on_adc
 .rodata.g_prcr_masks
                0x000085e8        0x8 ./ra/fsp/src/bsp/mcu/all/bsp_register_protection.o
 .rodata.__sf_fake_stderr
                0x000085f0       0x20 c:/program files (x86)/gnu arm embedded toolchain/10 2021.10/bin/../lib/gcc/arm-none-eabi/10.3.1/../../../../arm-none-eabi/lib/thumb/v8-m.main+fp/hard\libc_nano.a(lib_a-findfp.o)
                0x000085f0                __sf_fake_stderr
 .rodata.__sf_fake_stdin
                0x00008610       0x20 c:/program files (x86)/gnu arm embedded toolchain/10 2021.10/bin/../lib/gcc/arm-none-eabi/10.3.1/../../../../arm-none-eabi/lib/thumb/v8-m.main+fp/hard\libc_nano.a(lib_a-findfp.o)
                0x00008610                __sf_fake_stdin
 .rodata.__sf_fake_stdout
                0x00008630       0x20 c:/program files (x86)/gnu arm embedded toolchain/10 2021.10/bin/../lib/gcc/arm-none-eabi/10.3.1/../../../../arm-none-eabi/lib/thumb/v8-m.main+fp/hard\libc_nano.a(lib_a-findfp.o)
                0x00008630                __sf_fake_stdout
 .rodata.atanhi
                0x00008650       0x10 c:/program files (x86)/gnu arm embedded toolchain/10 2021.10/bin/../lib/gcc/arm-none-eabi/10.3.1/../../../../arm-none-eabi/lib/thumb/v8-m.main+fp/hard\libm.a(lib_a-sf_atan.o)
 .rodata.atanlo
                0x00008660       0x10 c:/program files (x86)/gnu arm embedded toolchain/10 2021.10/bin/../lib/gcc/arm-none-eabi/10.3.1/../../../../arm-none-eabi/lib/thumb/v8-m.main+fp/hard\libm.a(lib_a-sf_atan.o)
 .rodata.npio2_hw
                0x00008670       0x80 c:/program files (x86)/gnu arm embedded toolchain/10 2021.10/bin/../lib/gcc/arm-none-eabi/10.3.1/../../../../arm-none-eabi/lib/thumb/v8-m.main+fp/hard\libm.a(lib_a-ef_rem_pio2.o)
 .rodata.two_over_pi
                0x000086f0      0x318 c:/program files (x86)/gnu arm embedded toolchain/10 2021.10/bin/../lib/gcc/arm-none-eabi/10.3.1/../../../../arm-none-eabi/lib/thumb/v8-m.main+fp/hard\libm.a(lib_a-ef_rem_pio2.o)
 .rodata.PIo2   0x00008a08       0x2c c:/program files (x86)/gnu arm embedded toolchain/10 2021.10/bin/../lib/gcc/arm-none-eabi/10.3.1/../../../../arm-none-eabi/lib/thumb/v8-m.main+fp/hard\libm.a(lib_a-kf_rem_pio2.o)
 .rodata.init_jk
                0x00008a34        0xc c:/program files (x86)/gnu arm embedded toolchain/10 2021.10/bin/../lib/gcc/arm-none-eabi/10.3.1/../../../../arm-none-eabi/lib/thumb/v8-m.main+fp/hard\libm.a(lib_a-kf_rem_pio2.o)
                0x00008a40                __usb_dev_descriptor_start_fs = .
 *(.usb_device_desc_fs*)
                0x00008a40                __usb_cfg_descriptor_start_fs = .
 *(.usb_config_desc_fs*)
                0x00008a40                __usb_interface_descriptor_start_fs = .
 *(.usb_interface_desc_fs*)
                0x00008a40                __usb_descriptor_end_fs = .
                0x00008a40                __usb_dev_descriptor_start_hs = .
 *(.usb_device_desc_hs*)
                0x00008a40                __usb_cfg_descriptor_start_hs = .
 *(.usb_config_desc_hs*)
                0x00008a40                __usb_interface_descriptor_start_hs = .
 *(.usb_interface_desc_hs*)
                0x00008a40                __usb_descriptor_end_hs = .
 *(.eh_frame*)
 .eh_frame      0x00008a40        0x0 c:/program files (x86)/gnu arm embedded toolchain/10 2021.10/bin/../lib/gcc/arm-none-eabi/10.3.1/thumb/v8-m.main+fp/hard/crtbegin.o
 .eh_frame      0x00008a40        0x4 c:/program files (x86)/gnu arm embedded toolchain/10 2021.10/bin/../lib/gcc/arm-none-eabi/10.3.1/thumb/v8-m.main+fp/hard/crtend.o
                0x00008a44                __ROM_End = .
                0x000001c0                __Vectors_Size = (__Vectors_End - __Vectors)

.glue_7         0x00008a44        0x0
 .glue_7        0x00008a44        0x0 linker stubs

.glue_7t        0x00008a44        0x0
 .glue_7t       0x00008a44        0x0 linker stubs

.vfp11_veneer   0x00008a44        0x0
 .vfp11_veneer  0x00008a44        0x0 linker stubs

.v4_bx          0x00008a44        0x0
 .v4_bx         0x00008a44        0x0 linker stubs

.iplt           0x00008a44        0x0
 .iplt          0x00008a44        0x0 c:/program files (x86)/gnu arm embedded toolchain/10 2021.10/bin/../lib/gcc/arm-none-eabi/10.3.1/thumb/v8-m.main+fp/hard/crtbegin.o
                0x00008a44                . = .
                0x00008a44                __itcm_data_pre_location = .

.itcm_data      0x00000000        0x0 load address 0x00008a50
                0x00000000                __tz_ITCM_S = ABSOLUTE (ITCM_START)
                0x00000000                __itcm_data_start = .
 *(.itcm_data*)
                0x00000000                . = ALIGN (0x8)
                0x00000000                __itcm_data_end = .
                0x00000000                __tz_ITCM_N = DEFINED (ITCM_NS_START)?ABSOLUTE (ITCM_NS_START):ALIGN (__itcm_data_end, 0x2000)
                0x00008a50                __itcm_data_init_start = LOADADDR (.itcm_data)
                0x00008a50                __itcm_data_init_end = (LOADADDR (.itcm_data) + SIZEOF (.itcm_data))
                0x00000001                ASSERT (((ORIGIN (ITCM) % 0x8) == 0x0), ITCM memory region origin must be aligned to 8 bytes.)
                0x00000001                ASSERT (((LENGTH (ITCM) % 0x8) == 0x0), ITCM memory region length must be a multiple of 8 bytes.)
                0x00000001                ASSERT (((LOADADDR (.itcm_data) % 0x10) == 0x0), .itcm_data section must be aligned to 16 bytes.)
                0x00000001                ASSERT (((SIZEOF (.itcm_data) % 0x8) == 0x0), .itcm_data section size must be a multiple of 8 bytes.)
                0x00008a44                . = (SIZEOF (.itcm_data) > 0x0)?__itcm_data_init_end:__itcm_data_pre_location
                0x00008a44                __exidx_start = .

/DISCARD/
 *(.ARM.extab* .gnu.linkonce.armextab.*)
 *(.ARM.exidx* .gnu.linkonce.armexidx.*)
                0x00008a44                __exidx_end = .
                0x00008a44                __etext = .
                0x20000000                __tz_RAM_S = ORIGIN (RAM)

.fsp_dtc_vector_table
                0x20000000        0x0
                0x20000000                . = ORIGIN (RAM)
 *(.fsp_dtc_vector_table)

.data           0x20000000       0x8c load address 0x00008a44
                0x20000000                __data_start__ = .
                0x20000000                . = ALIGN (0x4)
                0x20000000                __Code_In_RAM_Start = .
 *(.code_in_ram*)
                0x20000000                __Code_In_RAM_End = .
 *(vtable)
 *(.data.*)
 .data.g_motor_current0_design
                0x20000000        0x8 ./ra_gen/hal_data.o
                0x20000000                g_motor_current0_design
 .data.g_motor_current0_motor
                0x20000008       0x18 ./ra_gen/hal_data.o
                0x20000008                g_motor_current0_motor
 .data._impure_ptr
                0x20000020        0x4 c:/program files (x86)/gnu arm embedded toolchain/10 2021.10/bin/../lib/gcc/arm-none-eabi/10.3.1/../../../../arm-none-eabi/lib/thumb/v8-m.main+fp/hard\libg_nano.a(lib_a-impure.o)
                0x20000020                _impure_ptr
 .data.impure_data
                0x20000024       0x60 c:/program files (x86)/gnu arm embedded toolchain/10 2021.10/bin/../lib/gcc/arm-none-eabi/10.3.1/../../../../arm-none-eabi/lib/thumb/v8-m.main+fp/hard\libg_nano.a(lib_a-impure.o)
 *(.data)
                0x20000084                . = ALIGN (0x4)
                0x20000084                PROVIDE (__preinit_array_start = .)
 *(.preinit_array)
                0x20000084                PROVIDE (__preinit_array_end = .)
                0x20000084                . = ALIGN (0x4)
                0x20000084                PROVIDE (__init_array_start = .)
 *(SORT_BY_NAME(.init_array.*))
 *(.init_array)
 .init_array    0x20000084        0x4 c:/program files (x86)/gnu arm embedded toolchain/10 2021.10/bin/../lib/gcc/arm-none-eabi/10.3.1/thumb/v8-m.main+fp/hard/crtbegin.o
                0x20000088                PROVIDE (__init_array_end = .)
                0x20000088                . = ALIGN (0x4)
                [!provide]                PROVIDE (__fini_array_start = .)
 *(SORT_BY_NAME(.fini_array.*))
 *(.fini_array)
 .fini_array    0x20000088        0x4 c:/program files (x86)/gnu arm embedded toolchain/10 2021.10/bin/../lib/gcc/arm-none-eabi/10.3.1/thumb/v8-m.main+fp/hard/crtbegin.o
                [!provide]                PROVIDE (__fini_array_end = .)
 *(.jcr*)
                0x2000008c                . = ALIGN (0x4)
                0x2000008c                __data_end__ = .

.igot.plt       0x2000008c        0x0 load address 0x00008ad0
 .igot.plt      0x2000008c        0x0 c:/program files (x86)/gnu arm embedded toolchain/10 2021.10/bin/../lib/gcc/arm-none-eabi/10.3.1/thumb/v8-m.main+fp/hard/crtbegin.o
                0x2000008c                . = .
                0x00008ad0                __dtcm_data_pre_location = (LOADADDR (.data) + SIZEOF (.data))

.dtcm_data      0x00000000        0x0 load address 0x00008ad0
                0x00000000                __tz_DTCM_S = ABSOLUTE (DTCM_START)
                0x00000000                __dtcm_data_start = .
 *(.dtcm_data*)
                0x00000000                . = ALIGN (0x8)
                0x00000000                __dtcm_data_end = .
                0x00000000                . = __dtcm_data_end

.dtcm_bss       0x00000000        0x0
                0x00000000                __dtcm_bss_start = .
 *(.dtcm_bss*)
                0x00000000                . = ALIGN (0x8)
                0x00000000                __dtcm_bss_end = .
                0x00000000                __tz_DTCM_N = DEFINED (DTCM_NS_START)?ABSOLUTE (DTCM_NS_START):ALIGN (__dtcm_bss_end, 0x2000)
                0x00008ad0                __dtcm_data_init_start = LOADADDR (.dtcm_data)
                0x00008ad0                __dtcm_data_init_end = (LOADADDR (.dtcm_data) + SIZEOF (.dtcm_data))
                0x00000001                ASSERT (((ORIGIN (DTCM) % 0x8) == 0x0), DTCM memory region origin must be aligned to 8 bytes.)
                0x00000001                ASSERT (((LENGTH (DTCM) % 0x8) == 0x0), DTCM memory region length must be a multiple of 8 bytes.)
                0x00000001                ASSERT ((LOADADDR (.dtcm_bss) == ADDR (.dtcm_bss)), .dtcm_bss has (VMA != LMA) but should be NOLOAD (VMA == LMA).)
                0x00000001                ASSERT (((LOADADDR (.dtcm_data) % 0x10) == 0x0), .dtcm_data section must be aligned to 16 bytes.)
                0x00000001                ASSERT (((SIZEOF (.dtcm_data) % 0x8) == 0x0), .dtcm_data section size must be a multiple of 8 bytes.)
                0x00000001                ASSERT (((LOADADDR (.dtcm_bss) % 0x8) == 0x0), .dtcm_bss section must be aligned to 8 bytes.)
                0x00000001                ASSERT (((SIZEOF (.dtcm_bss) % 0x8) == 0x0), .dtcm_bss section size must be a multiple of 8 bytes.)
                0x00000001                ASSERT ((__dtcm_bss_start == __dtcm_data_end), .dtcm_bss section is not adjacent to .dtcm_data section.)
                0x00008ad0                . = (SIZEOF (.dtcm_data) > 0x0)?__dtcm_data_init_end:__dtcm_data_pre_location
                0x00008ad0                sgstubs_pre_location = .
                0x00008c00                SGSTUBS_LOC = (DEFINED (PROJECT_SECURE) && DEFINED (FLASH_NSC_START))?ABSOLUTE (FLASH_NSC_START):ALIGN (0x400)

.gnu.sgstubs    0x00008c00        0x0
                0x00008c00                __tz_FLASH_C = DEFINED (FLASH_NSC_START)?ABSOLUTE (FLASH_NSC_START):__RESERVE_NS_RAM?ABSOLUTE ((FLASH_START + FLASH_LENGTH)):ALIGN (0x400)
                0x00008c00                _start_sg = .
 *(.gnu.sgstubs*)
                0x00008c00                . = ALIGN (0x20)
                0x00008c00                _end_sg = .
                0x00010000                __tz_FLASH_N = DEFINED (FLASH_NS_START)?ABSOLUTE (FLASH_NS_START):__RESERVE_NS_RAM?ABSOLUTE ((FLASH_START + FLASH_LENGTH)):(FLASH_LENGTH < 0x8000)?FLASH_LENGTH:ALIGN (0x8000)
                0x00010000                FLASH_NS_IMAGE_START = DEFINED (FLASH_NS_IMAGE_START)?FLASH_NS_IMAGE_START:__tz_FLASH_N
                0x60000000                __tz_QSPI_FLASH_S = ORIGIN (QSPI_FLASH)

.qspi_flash     0x60000000        0x0
                0x60000000                __qspi_flash_start__ = .
 *(.qspi_flash*)
 *(.code_in_qspi*)
                0x60000000                __qspi_flash_end__ = .
                0x00000000                __qspi_flash_code_size__ = (__qspi_flash_end__ - __qspi_flash_start__)
                0x00008ad0                __qspi_flash_code_addr__ = sgstubs_pre_location

.qspi_non_retentive
                0x60000000        0x0 load address 0x00008ad0
                0x60000000                __qspi_non_retentive_start__ = .
 *(.qspi_non_retentive*)
                0x60000000                __qspi_non_retentive_end__ = .
                0x00000000                __qspi_non_retentive_size__ = (__qspi_non_retentive_end__ - __qspi_non_retentive_start__)
                0x04000000                __qspi_region_max_size__ = 0x4000000
                0x60000000                __qspi_region_start_address__ = __qspi_flash_start__
                0x64000000                __qspi_region_end_address__ = (__qspi_flash_start__ + __qspi_region_max_size__)
                0x60000000                __tz_QSPI_FLASH_N = __qspi_non_retentive_end__

.OSPI_DEVICE_0_NO_LOAD
                0x80020000        0x0
                0x80020000                . = ALIGN (0x4)
                0x80020000                __ospi_device_0_start__ = .
 *(.ospi_device_0_no_load*)
                0x80020000                . = ALIGN (0x4)
                0x80020000                __ospi_device_0_end__ = .

.OSPI_DEVICE_1_NO_LOAD
                0x80030000        0x0
                0x80030000                . = ALIGN (0x4)
                0x80030000                __ospi_device_1_start__ = .
 *(.ospi_device_1_no_load*)
                0x80030000                . = ALIGN (0x4)
                0x80030000                __ospi_device_1_end__ = .
                0x80020000                __tz_OSPI_DEVICE_0_S = ORIGIN (OSPI_DEVICE_0)

.OSPI_DEVICE_0  0x80020000        0x0
                0x80020000                __ospi_device_0_start__ = .
 *(.ospi_device_0*)
 *(.code_in_ospi_device_0*)
                0x80020000                __ospi_device_0_end__ = .
                0x00000000                __ospi_device_0_code_size__ = (__ospi_device_0_end__ - __ospi_device_0_start__)
                0x00008ad0                __ospi_device_0_code_addr__ = (sgstubs_pre_location + SIZEOF (.qspi_non_retentive))

.ospi_device_0_non_retentive
                0x80020000        0x0 load address 0x00008ad0
                0x80020000                __ospi_device_0_non_retentive_start__ = .
 *(.ospi_device_0_non_retentive*)
                0x80020000                __ospi_device_0_non_retentive_end__ = .
                0x00000000                __ospi_device_0_non_retentive_size__ = (__ospi_device_0_non_retentive_end__ - __ospi_device_0_non_retentive_start__)
                0x08000000                __ospi_device_0_region_max_size__ = 0x8000000
                0x80020000                __ospi_device_0_region_start_address__ = __ospi_device_0_start__
                0x88020000                __ospi_device_0_region_end_address__ = (__ospi_device_0_start__ + __ospi_device_0_region_max_size__)
                0x80020000                __tz_OSPI_DEVICE_0_N = __ospi_device_0_non_retentive_end__
                0x80030000                __tz_OSPI_DEVICE_1_S = ORIGIN (OSPI_DEVICE_1)

.OSPI_DEVICE_1  0x80030000        0x0
                0x80030000                __ospi_device_1_start__ = .
 *(.ospi_device_1*)
 *(.code_in_ospi_device_1*)
                0x80030000                __ospi_device_1_end__ = .
                0x00000000                __ospi_device_1_code_size__ = (__ospi_device_1_end__ - __ospi_device_1_start__)
                0x00008ad0                __ospi_device_1_code_addr__ = (sgstubs_pre_location + (SIZEOF (.qspi_non_retentive) + SIZEOF (.ospi_device_0_non_retentive)))

.ospi_device_1_non_retentive
                0x80030000        0x0 load address 0x00008ad0
                0x80030000                __ospi_device_1_non_retentive_start__ = .
 *(.ospi_device_1_non_retentive*)
                0x80030000                __ospi_device_1_non_retentive_end__ = .
                0x00000000                __ospi_device_1_non_retentive_size__ = (__ospi_device_1_non_retentive_end__ - __ospi_device_1_non_retentive_start__)
                0x10000000                __ospi_device_1_region_max_size__ = 0x10000000
                0x80030000                __ospi_device_1_region_start_address__ = __ospi_device_1_start__
                0x90030000                __ospi_device_1_region_end_address__ = (__ospi_device_1_start__ + __ospi_device_1_region_max_size__)
                0x80030000                __tz_OSPI_DEVICE_1_N = __ospi_device_1_non_retentive_end__

.noinit         0x2000008c       0x1c
                0x2000008c                . = ALIGN (0x4)
                0x2000008c                __noinit_start = .
 *(.noinit*)
 .noinit        0x2000008c       0x18 ./ra/fsp/src/bsp/mcu/all/bsp_clocks.o
                0x200000a8                . = ALIGN (0x8)
 *fill*         0x200000a4        0x4 
 *(.heap.*)
                0x200000a8                __noinit_end = .

.bss            0x200000a8      0xb94
                0x200000a8                . = ALIGN (0x4)
                0x200000a8                __bss_start__ = .
 *(.bss*)
 .bss           0x200000a8       0x1c c:/program files (x86)/gnu arm embedded toolchain/10 2021.10/bin/../lib/gcc/arm-none-eabi/10.3.1/thumb/v8-m.main+fp/hard/crtbegin.o
 .bss.com_f4_current_omega
                0x200000c4        0x4 ./src/application/user_interface/ics/r_mtr_ics.o
                0x200000c4                com_f4_current_omega
 .bss.com_f4_current_zeta
                0x200000c8        0x4 ./src/application/user_interface/ics/r_mtr_ics.o
                0x200000c8                com_f4_current_zeta
 .bss.com_f4_e_obs_omega
                0x200000cc        0x4 ./src/application/user_interface/ics/r_mtr_ics.o
                0x200000cc                com_f4_e_obs_omega
 .bss.com_f4_e_obs_zeta
                0x200000d0        0x4 ./src/application/user_interface/ics/r_mtr_ics.o
                0x200000d0                com_f4_e_obs_zeta
 .bss.com_f4_id_down_speed_rpm
                0x200000d4        0x4 ./src/application/user_interface/ics/r_mtr_ics.o
                0x200000d4                com_f4_id_down_speed_rpm
 .bss.com_f4_id_up_speed_rpm
                0x200000d8        0x4 ./src/application/user_interface/ics/r_mtr_ics.o
                0x200000d8                com_f4_id_up_speed_rpm
 .bss.com_f4_iq_limit
                0x200000dc        0x4 ./src/application/user_interface/ics/r_mtr_ics.o
                0x200000dc                com_f4_iq_limit
 .bss.com_f4_limit_speed_change
                0x200000e0        0x4 ./src/application/user_interface/ics/r_mtr_ics.o
                0x200000e0                com_f4_limit_speed_change
 .bss.com_f4_max_speed_rpm
                0x200000e4        0x4 ./src/application/user_interface/ics/r_mtr_ics.o
                0x200000e4                com_f4_max_speed_rpm
 .bss.com_f4_mtr_j
                0x200000e8        0x4 ./src/application/user_interface/ics/r_mtr_ics.o
                0x200000e8                com_f4_mtr_j
 .bss.com_f4_mtr_ld
                0x200000ec        0x4 ./src/application/user_interface/ics/r_mtr_ics.o
                0x200000ec                com_f4_mtr_ld
 .bss.com_f4_mtr_lq
                0x200000f0        0x4 ./src/application/user_interface/ics/r_mtr_ics.o
                0x200000f0                com_f4_mtr_lq
 .bss.com_f4_mtr_m
                0x200000f4        0x4 ./src/application/user_interface/ics/r_mtr_ics.o
                0x200000f4                com_f4_mtr_m
 .bss.com_f4_mtr_r
                0x200000f8        0x4 ./src/application/user_interface/ics/r_mtr_ics.o
                0x200000f8                com_f4_mtr_r
 .bss.com_f4_ol_id_down_step
                0x200000fc        0x4 ./src/application/user_interface/ics/r_mtr_ics.o
                0x200000fc                com_f4_ol_id_down_step
 .bss.com_f4_ol_id_up_step
                0x20000100        0x4 ./src/application/user_interface/ics/r_mtr_ics.o
                0x20000100                com_f4_ol_id_up_step
 .bss.com_f4_overcurrent_limit
                0x20000104        0x4 ./src/application/user_interface/ics/r_mtr_ics.o
                0x20000104                com_f4_overcurrent_limit
 .bss.com_f4_overspeed_limit_rpm
                0x20000108        0x4 ./src/application/user_interface/ics/r_mtr_ics.o
                0x20000108                com_f4_overspeed_limit_rpm
 .bss.com_f4_pll_est_omega
                0x2000010c        0x4 ./src/application/user_interface/ics/r_mtr_ics.o
                0x2000010c                com_f4_pll_est_omega
 .bss.com_f4_pll_est_zeta
                0x20000110        0x4 ./src/application/user_interface/ics/r_mtr_ics.o
                0x20000110                com_f4_pll_est_zeta
 .bss.com_f4_ref_id
                0x20000114        0x4 ./src/application/user_interface/ics/r_mtr_ics.o
                0x20000114                com_f4_ref_id
 .bss.com_f4_ref_speed_rpm
                0x20000118        0x4 ./src/application/user_interface/ics/r_mtr_ics.o
                0x20000118                com_f4_ref_speed_rpm
 .bss.com_f4_speed_omega
                0x2000011c        0x4 ./src/application/user_interface/ics/r_mtr_ics.o
                0x2000011c                com_f4_speed_omega
 .bss.com_f4_speed_zeta
                0x20000120        0x4 ./src/application/user_interface/ics/r_mtr_ics.o
                0x20000120                com_f4_speed_zeta
 .bss.com_u1_enable_write
                0x20000124        0x1 ./src/application/user_interface/ics/r_mtr_ics.o
                0x20000124                com_u1_enable_write
 *fill*         0x20000125        0x1 
 .bss.com_u2_mtr_pp
                0x20000126        0x2 ./src/application/user_interface/ics/r_mtr_ics.o
                0x20000126                com_u2_mtr_pp
 .bss.g_f4_angle_rad_monitor
                0x20000128        0x4 ./src/application/user_interface/ics/r_mtr_ics.o
                0x20000128                g_f4_angle_rad_monitor
 .bss.g_f4_current_ki_d_monitor
                0x2000012c        0x4 ./src/application/user_interface/ics/r_mtr_ics.o
                0x2000012c                g_f4_current_ki_d_monitor
 .bss.g_f4_current_ki_q_monitor
                0x20000130        0x4 ./src/application/user_interface/ics/r_mtr_ics.o
                0x20000130                g_f4_current_ki_q_monitor
 .bss.g_f4_current_kp_d_monitor
                0x20000134        0x4 ./src/application/user_interface/ics/r_mtr_ics.o
                0x20000134                g_f4_current_kp_d_monitor
 .bss.g_f4_current_kp_q_monitor
                0x20000138        0x4 ./src/application/user_interface/ics/r_mtr_ics.o
                0x20000138                g_f4_current_kp_q_monitor
 .bss.g_f4_ed_monitor
                0x2000013c        0x4 ./src/application/user_interface/ics/r_mtr_ics.o
                0x2000013c                g_f4_ed_monitor
 .bss.g_f4_eq_monitor
                0x20000140        0x4 ./src/application/user_interface/ics/r_mtr_ics.o
                0x20000140                g_f4_eq_monitor
 .bss.g_f4_id_ad_monitor
                0x20000144        0x4 ./src/application/user_interface/ics/r_mtr_ics.o
                0x20000144                g_f4_id_ad_monitor
 .bss.g_f4_id_ref_monitor
                0x20000148        0x4 ./src/application/user_interface/ics/r_mtr_ics.o
                0x20000148                g_f4_id_ref_monitor
 .bss.g_f4_iq_ad_monitor
                0x2000014c        0x4 ./src/application/user_interface/ics/r_mtr_ics.o
                0x2000014c                g_f4_iq_ad_monitor
 .bss.g_f4_iq_ref_monitor
                0x20000150        0x4 ./src/application/user_interface/ics/r_mtr_ics.o
                0x20000150                g_f4_iq_ref_monitor
 .bss.g_f4_iu_ad_monitor
                0x20000154        0x4 ./src/application/user_interface/ics/r_mtr_ics.o
                0x20000154                g_f4_iu_ad_monitor
 .bss.g_f4_iv_ad_monitor
                0x20000158        0x4 ./src/application/user_interface/ics/r_mtr_ics.o
                0x20000158                g_f4_iv_ad_monitor
 .bss.g_f4_iw_ad_monitor
                0x2000015c        0x4 ./src/application/user_interface/ics/r_mtr_ics.o
                0x2000015c                g_f4_iw_ad_monitor
 .bss.g_f4_k_e_obs_1_d_monitor
                0x20000160        0x4 ./src/application/user_interface/ics/r_mtr_ics.o
                0x20000160                g_f4_k_e_obs_1_d_monitor
 .bss.g_f4_k_e_obs_1_q_monitor
                0x20000164        0x4 ./src/application/user_interface/ics/r_mtr_ics.o
                0x20000164                g_f4_k_e_obs_1_q_monitor
 .bss.g_f4_k_e_obs_2_d_monitor
                0x20000168        0x4 ./src/application/user_interface/ics/r_mtr_ics.o
                0x20000168                g_f4_k_e_obs_2_d_monitor
 .bss.g_f4_k_e_obs_2_q_monitor
                0x2000016c        0x4 ./src/application/user_interface/ics/r_mtr_ics.o
                0x2000016c                g_f4_k_e_obs_2_q_monitor
 .bss.g_f4_ki_est_speed_monitor
                0x20000170        0x4 ./src/application/user_interface/ics/r_mtr_ics.o
                0x20000170                g_f4_ki_est_speed_monitor
 .bss.g_f4_kp_est_speed_monitor
                0x20000174        0x4 ./src/application/user_interface/ics/r_mtr_ics.o
                0x20000174                g_f4_kp_est_speed_monitor
 .bss.g_f4_phase_err_monitor
                0x20000178        0x4 ./src/application/user_interface/ics/r_mtr_ics.o
                0x20000178                g_f4_phase_err_monitor
 .bss.g_f4_refu_monitor
                0x2000017c        0x4 ./src/application/user_interface/ics/r_mtr_ics.o
                0x2000017c                g_f4_refu_monitor
 .bss.g_f4_refv_monitor
                0x20000180        0x4 ./src/application/user_interface/ics/r_mtr_ics.o
                0x20000180                g_f4_refv_monitor
 .bss.g_f4_refw_monitor
                0x20000184        0x4 ./src/application/user_interface/ics/r_mtr_ics.o
                0x20000184                g_f4_refw_monitor
 .bss.g_f4_speed_est_monitor
                0x20000188        0x4 ./src/application/user_interface/ics/r_mtr_ics.o
                0x20000188                g_f4_speed_est_monitor
 .bss.g_f4_speed_ki_monitor
                0x2000018c        0x4 ./src/application/user_interface/ics/r_mtr_ics.o
                0x2000018c                g_f4_speed_ki_monitor
 .bss.g_f4_speed_kp_monitor
                0x20000190        0x4 ./src/application/user_interface/ics/r_mtr_ics.o
                0x20000190                g_f4_speed_kp_monitor
 .bss.g_f4_speed_ref_monitor
                0x20000194        0x4 ./src/application/user_interface/ics/r_mtr_ics.o
                0x20000194                g_f4_speed_ref_monitor
 .bss.g_f4_speed_rpm_monitor
                0x20000198        0x4 ./src/application/user_interface/ics/r_mtr_ics.o
                0x20000198                g_f4_speed_rpm_monitor
 .bss.g_f4_vd_ref_monitor
                0x2000019c        0x4 ./src/application/user_interface/ics/r_mtr_ics.o
                0x2000019c                g_f4_vd_ref_monitor
 .bss.g_f4_vdc_ad_monitor
                0x200001a0        0x4 ./src/application/user_interface/ics/r_mtr_ics.o
                0x200001a0                g_f4_vdc_ad_monitor
 .bss.g_f4_vq_ref_monitor
                0x200001a4        0x4 ./src/application/user_interface/ics/r_mtr_ics.o
                0x200001a4                g_f4_vq_ref_monitor
 .bss.g_u1_enable_write
                0x200001a8        0x1 ./src/application/user_interface/ics/r_mtr_ics.o
                0x200001a8                g_u1_enable_write
 .bss.g_u1_state_id_ref_monitor
                0x200001a9        0x1 ./src/application/user_interface/ics/r_mtr_ics.o
                0x200001a9                g_u1_state_id_ref_monitor
 .bss.g_u1_state_iq_ref_monitor
                0x200001aa        0x1 ./src/application/user_interface/ics/r_mtr_ics.o
                0x200001aa                g_u1_state_iq_ref_monitor
 .bss.g_u1_state_speed_ref_monitor
                0x200001ab        0x1 ./src/application/user_interface/ics/r_mtr_ics.o
                0x200001ab                g_u1_state_speed_ref_monitor
 .bss.g_u1_trig_enable_write
                0x200001ac        0x1 ./src/application/user_interface/ics/r_mtr_ics.o
                0x200001ac                g_u1_trig_enable_write
 .bss.u1_cnt_ics
                0x200001ad        0x1 ./src/application/user_interface/ics/r_mtr_ics.o
 *fill*         0x200001ae        0x2 
 .bss.com_f4_on_the_fly_current_omega
                0x200001b0        0x4 ./src/application/main/mtr_main.o
                0x200001b0                com_f4_on_the_fly_current_omega
 .bss.com_f4_on_the_fly_current_zeta
                0x200001b4        0x4 ./src/application/main/mtr_main.o
                0x200001b4                com_f4_on_the_fly_current_zeta
 .bss.com_f4_on_the_fly_obs_omega
                0x200001b8        0x4 ./src/application/main/mtr_main.o
                0x200001b8                com_f4_on_the_fly_obs_omega
 .bss.com_f4_on_the_fly_obs_zeta
                0x200001bc        0x4 ./src/application/main/mtr_main.o
                0x200001bc                com_f4_on_the_fly_obs_zeta
 .bss.com_f4_on_the_fly_pll_omega
                0x200001c0        0x4 ./src/application/main/mtr_main.o
                0x200001c0                com_f4_on_the_fly_pll_omega
 .bss.com_f4_on_the_fly_speed_omega
                0x200001c4        0x4 ./src/application/main/mtr_main.o
                0x200001c4                com_f4_on_the_fly_speed_omega
 .bss.com_f4_on_the_fly_speed_zeta
                0x200001c8        0x4 ./src/application/main/mtr_main.o
                0x200001c8                com_f4_on_the_fly_speed_zeta
 .bss.com_u1_mode_system
                0x200001cc        0x1 ./src/application/main/mtr_main.o
                0x200001cc                com_u1_mode_system
 .bss.com_u1_sw_userif
                0x200001cd        0x1 ./src/application/main/mtr_main.o
                0x200001cd                com_u1_sw_userif
 *fill*         0x200001ce        0x2 
 .bss.g_f4_speed_ref
                0x200001d0        0x4 ./src/application/main/mtr_main.o
                0x200001d0                g_f4_speed_ref
 .bss.g_u1_conf_control
                0x200001d4       0x29 ./src/application/main/mtr_main.o
                0x200001d4                g_u1_conf_control
 .bss.g_u1_conf_control_len
                0x200001fd        0x1 ./src/application/main/mtr_main.o
                0x200001fd                g_u1_conf_control_len
 *fill*         0x200001fe        0x2 
 .bss.g_u1_conf_inverter
                0x20000200        0x8 ./src/application/main/mtr_main.o
                0x20000200                g_u1_conf_inverter
 .bss.g_u1_conf_inverter_len
                0x20000208        0x1 ./src/application/main/mtr_main.o
                0x20000208                g_u1_conf_inverter_len
 *fill*         0x20000209        0x3 
 .bss.g_u1_conf_motor_type
                0x2000020c       0x16 ./src/application/main/mtr_main.o
                0x2000020c                g_u1_conf_motor_type
 .bss.g_u1_conf_motor_type_len
                0x20000222        0x1 ./src/application/main/mtr_main.o
                0x20000222                g_u1_conf_motor_type_len
 .bss.g_u1_mode_system
                0x20000223        0x1 ./src/application/main/mtr_main.o
                0x20000223                g_u1_mode_system
 .bss.g_u1_motor_status
                0x20000224        0x1 ./src/application/main/mtr_main.o
                0x20000224                g_u1_motor_status
 .bss.g_u1_on_the_fly_activate
                0x20000225        0x1 ./src/application/main/mtr_main.o
                0x20000225                g_u1_on_the_fly_activate
 .bss.g_u1_reset_req
                0x20000226        0x1 ./src/application/main/mtr_main.o
                0x20000226                g_u1_reset_req
 .bss.g_u1_stop_req
                0x20000227        0x1 ./src/application/main/mtr_main.o
                0x20000227                g_u1_stop_req
 .bss.g_u1_sw_cnt
                0x20000228        0x1 ./src/application/main/mtr_main.o
                0x20000228                g_u1_sw_cnt
 .bss.g_u1_sw_userif
                0x20000229        0x1 ./src/application/main/mtr_main.o
                0x20000229                g_u1_sw_userif
 .bss.g_u2_chk_error
                0x2000022a        0x2 ./src/application/main/mtr_main.o
                0x2000022a                g_u2_chk_error
 .bss.g_u2_conf_hw
                0x2000022c        0x2 ./src/application/main/mtr_main.o
                0x2000022c                g_u2_conf_hw
 .bss.g_u2_conf_sw
                0x2000022e        0x2 ./src/application/main/mtr_main.o
                0x2000022e                g_u2_conf_sw
 .bss.g_u2_conf_tool
                0x20000230        0x2 ./src/application/main/mtr_main.o
                0x20000230                g_u2_conf_tool
 .bss.g_u2_max_speed_rpm
                0x20000232        0x2 ./src/application/main/mtr_main.o
                0x20000232                g_u2_max_speed_rpm
 .bss.g_u2_vr1_ad
                0x20000234        0x2 ./src/application/main/mtr_main.o
                0x20000234                g_u2_vr1_ad
 *fill*         0x20000236        0x2 
 .bss.g_user_motor_angle_cfg
                0x20000238        0x8 ./src/application/main/mtr_main.o
                0x20000238                g_user_motor_angle_cfg
 .bss.g_user_motor_cfg
                0x20000240       0x14 ./src/application/main/mtr_main.o
                0x20000240                g_user_motor_cfg
 .bss.g_user_motor_current_cfg
                0x20000254       0x14 ./src/application/main/mtr_main.o
                0x20000254                g_user_motor_current_cfg
 .bss.g_user_motor_current_design_parameter
                0x20000268        0x8 ./src/application/main/mtr_main.o
                0x20000268                g_user_motor_current_design_parameter
 .bss.g_user_motor_current_extended_cfg
                0x20000270       0x44 ./src/application/main/mtr_main.o
                0x20000270                g_user_motor_current_extended_cfg
 .bss.g_user_motor_current_motor_parameter
                0x200002b4       0x18 ./src/application/main/mtr_main.o
                0x200002b4                g_user_motor_current_motor_parameter
 .bss.g_user_motor_driver_cfg
                0x200002cc       0x24 ./src/application/main/mtr_main.o
                0x200002cc                g_user_motor_driver_cfg
 .bss.g_user_motor_driver_extended_cfg
                0x200002f0       0x70 ./src/application/main/mtr_main.o
                0x200002f0                g_user_motor_driver_extended_cfg
 .bss.g_user_motor_estimate_extended_cfg
                0x20000360       0x34 ./src/application/main/mtr_main.o
                0x20000360                g_user_motor_estimate_extended_cfg
 .bss.g_user_motor_sensorless_extended_cfg
                0x20000394       0x10 ./src/application/main/mtr_main.o
                0x20000394                g_user_motor_sensorless_extended_cfg
 .bss.g_user_motor_speed_cfg
                0x200003a4       0x1c ./src/application/main/mtr_main.o
                0x200003a4                g_user_motor_speed_cfg
 .bss.g_user_motor_speed_extended_cfg
                0x200003c0       0xa0 ./src/application/main/mtr_main.o
                0x200003c0                g_user_motor_speed_extended_cfg
 .bss.g_elc_ctrl
                0x20000460        0x8 ./ra_gen/common_data.o
                0x20000460                g_elc_ctrl
 .bss.g_ioport_ctrl
                0x20000468        0x8 ./ra_gen/common_data.o
                0x20000468                g_ioport_ctrl
 .bss.g_adc0_ctrl
                0x20000470       0x24 ./ra_gen/hal_data.o
                0x20000470                g_adc0_ctrl
 .bss.g_motor_angle0_ctrl
                0x20000494       0x9c ./ra_gen/hal_data.o
                0x20000494                g_motor_angle0_ctrl
 .bss.g_motor_current0_ctrl
                0x20000530      0x11c ./ra_gen/hal_data.o
                0x20000530                g_motor_current0_ctrl
 *fill*         0x2000064c        0x4 
 .bss.g_motor_driver0_ctrl
                0x20000650       0xa8 ./ra_gen/hal_data.o
                0x20000650                g_motor_driver0_ctrl
 .bss.g_motor_sensorless0_ctrl
                0x200006f8       0x9c ./ra_gen/hal_data.o
                0x200006f8                g_motor_sensorless0_ctrl
 .bss.g_motor_speed0_ctrl
                0x20000794      0x18c ./ra_gen/hal_data.o
                0x20000794                g_motor_speed0_ctrl
 .bss.g_poeg0_ctrl
                0x20000920       0x18 ./ra_gen/hal_data.o
                0x20000920                g_poeg0_ctrl
 .bss.g_three_phase0_ctrl
                0x20000938       0x1c ./ra_gen/hal_data.o
                0x20000938                g_three_phase0_ctrl
 .bss.g_timer0_ctrl
                0x20000954       0x20 ./ra_gen/hal_data.o
                0x20000954                g_timer0_ctrl
 .bss.g_timer1_ctrl
                0x20000974       0x20 ./ra_gen/hal_data.o
                0x20000974                g_timer1_ctrl
 .bss.g_timer2_ctrl
                0x20000994       0x20 ./ra_gen/hal_data.o
                0x20000994                g_timer2_ctrl
 .bss.g_timer3_ctrl
                0x200009b4       0x20 ./ra_gen/hal_data.o
                0x200009b4                g_timer3_ctrl
 .bss.gp_prv_agt_periods
                0x200009d4        0x8 ./ra/fsp/src/r_agt/r_agt.o
 .bss.g_bsp_group_irq_sources
                0x200009dc       0x40 ./ra/fsp/src/bsp/mcu/all/bsp_group_irq.o
                0x200009dc                g_bsp_group_irq_sources
 .bss.g_protect_pfswe_counter
                0x20000a1c        0x4 ./ra/fsp/src/bsp/mcu/all/bsp_io.o
                0x20000a1c                g_protect_pfswe_counter
 .bss.gp_renesas_isr_context
                0x20000a20      0x180 ./ra/fsp/src/bsp/mcu/all/bsp_irq.o
                0x20000a20                gp_renesas_isr_context
 .bss.g_protect_counters
                0x20000ba0        0x8 ./ra/fsp/src/bsp/mcu/all/bsp_register_protection.o
                0x20000ba0                g_protect_counters
 .bss.SystemCoreClock
                0x20000ba8        0x4 ./ra/fsp/src/bsp/cmsis/Device/RENESAS/Source/system.o
                0x20000ba8                SystemCoreClock
 .bss.ICS_UARTx
                0x20000bac        0x4 C:/Users/a5143778/e2_studio/customized_workspace/RA6T3_MCILV1_SPM_LESS_FOC_E2S_V101/src/application/user_interface/ics/ICS2_RA6T3.o
                0x20000bac                ICS_UARTx
 .bss.ics_buf2nd
                0x20000bb0       0x20 C:/Users/a5143778/e2_studio/customized_workspace/RA6T3_MCILV1_SPM_LESS_FOC_E2S_V101/src/application/user_interface/ics/ICS2_RA6T3.o
 .bss.ics_data1
                0x20000bd0        0x4 C:/Users/a5143778/e2_studio/customized_workspace/RA6T3_MCILV1_SPM_LESS_FOC_E2S_V101/src/application/user_interface/ics/ICS2_RA6T3.o
 .bss.ics_data2
                0x20000bd4        0x4 C:/Users/a5143778/e2_studio/customized_workspace/RA6T3_MCILV1_SPM_LESS_FOC_E2S_V101/src/application/user_interface/ics/ICS2_RA6T3.o
 .bss.ics_even  0x20000bd8        0x1 C:/Users/a5143778/e2_studio/customized_workspace/RA6T3_MCILV1_SPM_LESS_FOC_E2S_V101/src/application/user_interface/ics/ICS2_RA6T3.o
 .bss.ics_port_h4
                0x20000bd9        0x1 C:/Users/a5143778/e2_studio/customized_workspace/RA6T3_MCILV1_SPM_LESS_FOC_E2S_V101/src/application/user_interface/ics/ICS2_RA6T3.o
 .bss.ics_rcom  0x20000bda        0x1 C:/Users/a5143778/e2_studio/customized_workspace/RA6T3_MCILV1_SPM_LESS_FOC_E2S_V101/src/application/user_interface/ics/ICS2_RA6T3.o
 .bss.ics_rsum  0x20000bdb        0x1 C:/Users/a5143778/e2_studio/customized_workspace/RA6T3_MCILV1_SPM_LESS_FOC_E2S_V101/src/application/user_interface/ics/ICS2_RA6T3.o
 .bss.ics_rx_cnt
                0x20000bdc        0x1 C:/Users/a5143778/e2_studio/customized_workspace/RA6T3_MCILV1_SPM_LESS_FOC_E2S_V101/src/application/user_interface/ics/ICS2_RA6T3.o
 .bss.ics_tmode
                0x20000bdd        0x1 C:/Users/a5143778/e2_studio/customized_workspace/RA6T3_MCILV1_SPM_LESS_FOC_E2S_V101/src/application/user_interface/ics/ICS2_RA6T3.o
 *fill*         0x20000bde        0x2 
 .bss.ics_tx    0x20000be0       0x14 C:/Users/a5143778/e2_studio/customized_workspace/RA6T3_MCILV1_SPM_LESS_FOC_E2S_V101/src/application/user_interface/ics/ICS2_RA6T3.o
 .bss.ics_waddr
                0x20000bf4       0x30 C:/Users/a5143778/e2_studio/customized_workspace/RA6T3_MCILV1_SPM_LESS_FOC_E2S_V101/src/application/user_interface/ics/ICS2_RA6T3.o
 .bss.ics_wready
                0x20000c24        0x2 C:/Users/a5143778/e2_studio/customized_workspace/RA6T3_MCILV1_SPM_LESS_FOC_E2S_V101/src/application/user_interface/ics/ICS2_RA6T3.o
 *fill*         0x20000c26        0x2 
 .bss.wbuf      0x20000c28       0x14 C:/Users/a5143778/e2_studio/customized_workspace/RA6T3_MCILV1_SPM_LESS_FOC_E2S_V101/src/application/user_interface/ics/ICS2_RA6T3.o
 *(COMMON)
                0x20000c3c                . = ALIGN (0x4)
                0x20000c3c                __bss_end__ = .

.heap           0x20000c3c        0x4
                0x20000c40                . = ALIGN (0x8)
 *fill*         0x20000c3c        0x4 
                0x20000c40                __HeapBase = .
 *(.heap)
                0x20000c40                __HeapLimit = .

.stack_dummy    0x20000c40      0x400
                0x20000c40                . = ALIGN (0x8)
                0x20000c40                __StackLimit = .
 *(.stack)
 .stack         0x20000c40      0x400 ./ra/fsp/src/bsp/cmsis/Device/RENESAS/Source/startup.o
                0x20001040                __StackTop = .
 *(.stack*)
                0x20001040                __StackTopAll = .
                0x20001040                PROVIDE (__stack = __StackTopAll)
                0x20001040                __RAM_segment_used_end__ = ALIGN (__StackTopAll, 0x4)
                0x20001400                __tz_RAM_C = DEFINED (RAM_NSC_START)?ABSOLUTE ((RAM_NSC_START - RAM_NS_BUFFER_BLOCK_LENGTH)):__RESERVE_NS_RAM?ABSOLUTE (RAM_NS_BUFFER_BLOCK_START):ALIGN (__RAM_segment_used_end__, 0x400)
                0x20002000                __tz_RAM_N = DEFINED (RAM_NS_START)?ABSOLUTE ((RAM_NS_START - RAM_NS_BUFFER_BLOCK_LENGTH)):__RESERVE_NS_RAM?ABSOLUTE (RAM_NS_BUFFER_BLOCK_START):ALIGN (__tz_RAM_C, 0x2000)

.ns_buffer      0x20001040        0x0
                0x20001040                . = __RESERVE_NS_RAM?ABSOLUTE ((RAM_NS_BUFFER_START & 0xffffffe0)):.
 *(.ns_buffer*)

.data_flash     0x08000000        0x0
                0x08000000                . = ORIGIN (DATA_FLASH)
                0x08000000                __tz_DATA_FLASH_S = .
                0x08000000                __Data_Flash_Start = .
 *(.data_flash*)
                0x08000000                __Data_Flash_End = .
                0x08000000                __tz_DATA_FLASH_N = DEFINED (DATA_FLASH_NS_START)?ABSOLUTE (DATA_FLASH_NS_START):__RESERVE_NS_RAM?ABSOLUTE ((DATA_FLASH_START + DATA_FLASH_LENGTH)):ALIGN (0x400)
                0x80010000                __tz_SDRAM_S = ORIGIN (SDRAM)

.sdram          0x80010000        0x0
                0x80010000                __SDRAM_Start = .
 *(.sdram*)
 *(.frame*)
                0x80010000                __SDRAM_End = .
                0x80010000                __tz_SDRAM_N = __SDRAM_End
                0x0100a120                __tz_ID_CODE_S = ORIGIN (ID_CODE)
                0x0100a120                __tz_ID_CODE_N = __tz_ID_CODE_S

.id_code        0x0100a120       0x10
                0x0100a120                __ID_Code_Start = .
 *(.id_code*)
 .id_code       0x0100a120       0x10 ./ra/fsp/src/bsp/mcu/all/bsp_rom_registers.o
                0x0100a130                __ID_Code_End = .
                0x0100a100                __tz_OPTION_SETTING_S = ORIGIN (OPTION_SETTING_OFS)

.option_setting_ofs
                0x0100a100       0x10
                0x0100a100                __OPTION_SETTING_OFS_Start = .
 *(.option_setting_ofs0)
 .option_setting_ofs0
                0x0100a100        0x4 ./ra/fsp/src/bsp/mcu/all/bsp_rom_registers.o
                0x0100a104                . = PROJECT_SECURE_OR_FLAT?(__OPTION_SETTING_OFS_Start + 0x4):__OPTION_SETTING_OFS_Start
 *(.option_setting_ofs2)
                0x0100a110                . = PROJECT_SECURE_OR_FLAT?(__OPTION_SETTING_OFS_Start + 0x10):__OPTION_SETTING_OFS_Start
 *fill*         0x0100a104        0xc ff
 *(.option_setting_dualsel)
                0x0100a110                __OPTION_SETTING_OFS_End = .

.option_setting_sas
                0x0100a134        0x4
                0x0100a134                __OPTION_SETTING_SAS_Start = .
 *(.option_setting_sas)
 .option_setting_sas
                0x0100a134        0x4 ./ra/fsp/src/bsp/mcu/all/bsp_rom_registers.o
                0x0100a138                __OPTION_SETTING_SAS_End = .
                0x0100a180                __tz_OPTION_SETTING_N = ABSOLUTE (OPTION_SETTING_START_NS)

.option_setting_ns
                0x0100a100        0x0
                0x0100a100                __OPTION_SETTING_NS_Start = .
 *(.option_setting_ofs1)
                0x0100a100                . = USE_OPTION_SETTING_NS?(__OPTION_SETTING_NS_Start + 0x4):__OPTION_SETTING_NS_Start
 *(.option_setting_ofs3)
                0x0100a100                . = USE_OPTION_SETTING_NS?(__OPTION_SETTING_NS_Start + 0x10):__OPTION_SETTING_NS_Start
 *(.option_setting_banksel)
                0x0100a100                . = USE_OPTION_SETTING_NS?(__OPTION_SETTING_NS_Start + 0x40):__OPTION_SETTING_NS_Start
 *(.option_setting_bps0)
                0x0100a100                . = USE_OPTION_SETTING_NS?(__OPTION_SETTING_NS_Start + 0x44):__OPTION_SETTING_NS_Start
 *(.option_setting_bps1)
                0x0100a100                . = USE_OPTION_SETTING_NS?(__OPTION_SETTING_NS_Start + 0x48):__OPTION_SETTING_NS_Start
 *(.option_setting_bps2)
                0x0100a100                . = USE_OPTION_SETTING_NS?(__OPTION_SETTING_NS_Start + 0x4c):__OPTION_SETTING_NS_Start
 *(.option_setting_bps3)
                0x0100a100                . = USE_OPTION_SETTING_NS?(__OPTION_SETTING_NS_Start + 0x60):__OPTION_SETTING_NS_Start
 *(.option_setting_pbps0)
                0x0100a100                . = USE_OPTION_SETTING_NS?(__OPTION_SETTING_NS_Start + 0x64):__OPTION_SETTING_NS_Start
 *(.option_setting_pbps1)
                0x0100a100                . = USE_OPTION_SETTING_NS?(__OPTION_SETTING_NS_Start + 0x68):__OPTION_SETTING_NS_Start
 *(.option_setting_pbps2)
                0x0100a100                . = USE_OPTION_SETTING_NS?(__OPTION_SETTING_NS_Start + 0x6c):__OPTION_SETTING_NS_Start
 *(.option_setting_pbps3)
                0x0100a100                __OPTION_SETTING_NS_End = .
                0x0100a200                __tz_OPTION_SETTING_S_S = ORIGIN (OPTION_SETTING_S)

.option_setting_s
                0x0100a200       0xcc
                0x0100a200                __OPTION_SETTING_S_Start = .
 *(.option_setting_ofs1_sec)
 .option_setting_ofs1_sec
                0x0100a200        0x4 ./ra/fsp/src/bsp/mcu/all/bsp_rom_registers.o
                0x0100a204                . = PROJECT_SECURE_OR_FLAT?(__OPTION_SETTING_S_Start + 0x4):__OPTION_SETTING_S_Start
 *(.option_setting_ofs3_sec)
                0x0100a210                . = PROJECT_SECURE_OR_FLAT?(__OPTION_SETTING_S_Start + 0x10):__OPTION_SETTING_S_Start
 *fill*         0x0100a204        0xc ff
 *(.option_setting_banksel_sec)
                0x0100a240                . = PROJECT_SECURE_OR_FLAT?(__OPTION_SETTING_S_Start + 0x40):__OPTION_SETTING_S_Start
 *fill*         0x0100a210       0x30 ff
 *(.option_setting_bps_sec0)
 .option_setting_bps_sec0
                0x0100a240        0x4 ./ra/fsp/src/bsp/mcu/all/bsp_rom_registers.o
                0x0100a244                . = PROJECT_SECURE_OR_FLAT?(__OPTION_SETTING_S_Start + 0x44):__OPTION_SETTING_S_Start
 *(.option_setting_bps_sec1)
                0x0100a248                . = PROJECT_SECURE_OR_FLAT?(__OPTION_SETTING_S_Start + 0x48):__OPTION_SETTING_S_Start
 *fill*         0x0100a244        0x4 ff
 *(.option_setting_bps_sec2)
                0x0100a24c                . = PROJECT_SECURE_OR_FLAT?(__OPTION_SETTING_S_Start + 0x4c):__OPTION_SETTING_S_Start
 *fill*         0x0100a248        0x4 ff
 *(.option_setting_bps_sec3)
                0x0100a260                . = PROJECT_SECURE_OR_FLAT?(__OPTION_SETTING_S_Start + 0x60):__OPTION_SETTING_S_Start
 *fill*         0x0100a24c       0x14 ff
 *(.option_setting_pbps_sec0)
 .option_setting_pbps_sec0
                0x0100a260        0x4 ./ra/fsp/src/bsp/mcu/all/bsp_rom_registers.o
                0x0100a264                . = PROJECT_SECURE_OR_FLAT?(__OPTION_SETTING_S_Start + 0x64):__OPTION_SETTING_S_Start
 *(.option_setting_pbps_sec1)
                0x0100a268                . = PROJECT_SECURE_OR_FLAT?(__OPTION_SETTING_S_Start + 0x68):__OPTION_SETTING_S_Start
 *fill*         0x0100a264        0x4 ff
 *(.option_setting_pbps_sec2)
                0x0100a26c                . = PROJECT_SECURE_OR_FLAT?(__OPTION_SETTING_S_Start + 0x6c):__OPTION_SETTING_S_Start
 *fill*         0x0100a268        0x4 ff
 *(.option_setting_pbps_sec3)
                0x0100a280                . = PROJECT_SECURE_OR_FLAT?(__OPTION_SETTING_S_Start + 0x80):__OPTION_SETTING_S_Start
 *fill*         0x0100a26c       0x14 ff
 *(.option_setting_ofs1_sel)
                0x0100a284                . = PROJECT_SECURE_OR_FLAT?(__OPTION_SETTING_S_Start + 0x84):__OPTION_SETTING_S_Start
 *fill*         0x0100a280        0x4 ff
 *(.option_setting_ofs3_sel)
                0x0100a290                . = PROJECT_SECURE_OR_FLAT?(__OPTION_SETTING_S_Start + 0x90):__OPTION_SETTING_S_Start
 *fill*         0x0100a284        0xc ff
 *(.option_setting_banksel_sel)
                0x0100a2c0                . = PROJECT_SECURE_OR_FLAT?(__OPTION_SETTING_S_Start + 0xc0):__OPTION_SETTING_S_Start
 *fill*         0x0100a290       0x30 ff
 *(.option_setting_bps_sel0)
                0x0100a2c4                . = PROJECT_SECURE_OR_FLAT?(__OPTION_SETTING_S_Start + 0xc4):__OPTION_SETTING_S_Start
 *fill*         0x0100a2c0        0x4 ff
 *(.option_setting_bps_sel1)
                0x0100a2c8                . = PROJECT_SECURE_OR_FLAT?(__OPTION_SETTING_S_Start + 0xc8):__OPTION_SETTING_S_Start
 *fill*         0x0100a2c4        0x4 ff
 *(.option_setting_bps_sel2)
                0x0100a2cc                . = PROJECT_SECURE_OR_FLAT?(__OPTION_SETTING_S_Start + 0xcc):__OPTION_SETTING_S_Start
 *fill*         0x0100a2c8        0x4 ff
 *(.option_setting_bps_sel3)
                0x0100a2cc                __OPTION_SETTING_S_End = .
                0x0100a2cc                __tz_OPTION_SETTING_S_N = __OPTION_SETTING_S_End
OUTPUT(RA6T3_MCILV1_SPM_LESS_FOC_E2S_V101.elf elf32-littlearm)
LOAD linker stubs

.rel.dyn        0x0100a2cc        0x0
 .rel.iplt      0x0100a2cc        0x0 c:/program files (x86)/gnu arm embedded toolchain/10 2021.10/bin/../lib/gcc/arm-none-eabi/10.3.1/thumb/v8-m.main+fp/hard/crtbegin.o

.ARM.attributes
                0x00000000       0x36
 .ARM.attributes
                0x00000000       0x22 c:/program files (x86)/gnu arm embedded toolchain/10 2021.10/bin/../lib/gcc/arm-none-eabi/10.3.1/thumb/v8-m.main+fp/hard/crti.o
 .ARM.attributes
                0x00000022       0x38 c:/program files (x86)/gnu arm embedded toolchain/10 2021.10/bin/../lib/gcc/arm-none-eabi/10.3.1/thumb/v8-m.main+fp/hard/crtbegin.o
 .ARM.attributes
                0x0000005a       0x3a ./src/application/user_interface/ics/r_mtr_ics.o
 .ARM.attributes
                0x00000094       0x3a ./src/application/main/mtr_main.o
 .ARM.attributes
                0x000000ce       0x3a ./src/hal_entry.o
 .ARM.attributes
                0x00000108       0x3a ./ra_gen/common_data.o
 .ARM.attributes
                0x00000142       0x3a ./ra_gen/elc_data.o
 .ARM.attributes
                0x0000017c       0x3a ./ra_gen/hal_data.o
 .ARM.attributes
                0x000001b6       0x3a ./ra_gen/main.o
 .ARM.attributes
                0x000001f0       0x3a ./ra_gen/pin_data.o
 .ARM.attributes
                0x0000022a       0x3a ./ra_gen/vector_data.o
 .ARM.attributes
                0x00000264       0x3a ./ra/fsp/src/rm_motor_speed/rm_motor_speed.o
 .ARM.attributes
                0x0000029e       0x3a ./ra/fsp/src/rm_motor_sensorless/rm_motor_sensorless.o
 .ARM.attributes
                0x000002d8       0x3a ./ra/fsp/src/rm_motor_estimate/rm_motor_estimate.o
 .ARM.attributes
                0x00000312       0x3a ./ra/fsp/src/rm_motor_driver/rm_motor_driver.o
 .ARM.attributes
                0x0000034c       0x3a ./ra/fsp/src/rm_motor_current/rm_motor_current.o
 .ARM.attributes
                0x00000386       0x3a ./ra/fsp/src/r_poeg/r_poeg.o
 .ARM.attributes
                0x000003c0       0x3a ./ra/fsp/src/r_ioport/r_ioport.o
 .ARM.attributes
                0x000003fa       0x3a ./ra/fsp/src/r_gpt_three_phase/r_gpt_three_phase.o
 .ARM.attributes
                0x00000434       0x3a ./ra/fsp/src/r_gpt/r_gpt.o
 .ARM.attributes
                0x0000046e       0x3a ./ra/fsp/src/r_elc/r_elc.o
 .ARM.attributes
                0x000004a8       0x3a ./ra/fsp/src/r_agt/r_agt.o
 .ARM.attributes
                0x000004e2       0x3a ./ra/fsp/src/r_adc/r_adc.o
 .ARM.attributes
                0x0000051c       0x3a ./ra/fsp/src/bsp/mcu/all/bsp_clocks.o
 .ARM.attributes
                0x00000556       0x3a ./ra/fsp/src/bsp/mcu/all/bsp_common.o
 .ARM.attributes
                0x00000590       0x3a ./ra/fsp/src/bsp/mcu/all/bsp_delay.o
 .ARM.attributes
                0x000005ca       0x3a ./ra/fsp/src/bsp/mcu/all/bsp_group_irq.o
 .ARM.attributes
                0x00000604       0x3a ./ra/fsp/src/bsp/mcu/all/bsp_io.o
 .ARM.attributes
                0x0000063e       0x3a ./ra/fsp/src/bsp/mcu/all/bsp_irq.o
 .ARM.attributes
                0x00000678       0x3a ./ra/fsp/src/bsp/mcu/all/bsp_register_protection.o
 .ARM.attributes
                0x000006b2       0x3a ./ra/fsp/src/bsp/mcu/all/bsp_rom_registers.o
 .ARM.attributes
                0x000006ec       0x3a ./ra/fsp/src/bsp/cmsis/Device/RENESAS/Source/startup.o
 .ARM.attributes
                0x00000726       0x3a ./ra/fsp/src/bsp/cmsis/Device/RENESAS/Source/system.o
 .ARM.attributes
                0x00000760       0x3a ./ra/board/ra6t3_mck/board_init.o
 .ARM.attributes
                0x0000079a       0x3a C:/Users/a5143778/e2_studio/customized_workspace/RA6T3_MCILV1_SPM_LESS_FOC_E2S_V101/src/application/user_interface/ics/ICS2_RA6T3.o
 .ARM.attributes
                0x000007d4       0x3a C:\Users\a5143778\e2_studio\customized_workspace\RA6T3_MCILV1_SPM_LESS_FOC_E2S_V101\ra\fsp\lib\rm_motor_current\cm33_gcc\librm_motor_current.a(rm_motor_current_pi_gain_calc.o)
 .ARM.attributes
                0x0000080e       0x3a C:\Users\a5143778\e2_studio\customized_workspace\RA6T3_MCILV1_SPM_LESS_FOC_E2S_V101\ra\fsp\lib\rm_motor_current\cm33_gcc\librm_motor_current.a(rm_motor_volt_error_comp.o)
 .ARM.attributes
                0x00000848       0x3a C:\Users\a5143778\e2_studio\customized_workspace\RA6T3_MCILV1_SPM_LESS_FOC_E2S_V101\ra\fsp\lib\rm_motor_estimate\cm33_gcc\librm_motor_estimate.a(rm_motor_estimate_bemf_observer.o)
 .ARM.attributes
                0x00000882       0x3a C:\Users\a5143778\e2_studio\customized_workspace\RA6T3_MCILV1_SPM_LESS_FOC_E2S_V101\ra\fsp\lib\rm_motor_speed\cm33_gcc\librm_motor_speed.a(rm_motor_speed_disturbance_observer.o)
 .ARM.attributes
                0x000008bc       0x3a C:\Users\a5143778\e2_studio\customized_workspace\RA6T3_MCILV1_SPM_LESS_FOC_E2S_V101\ra\fsp\lib\rm_motor_speed\cm33_gcc\librm_motor_speed.a(rm_motor_speed_fluxwkn.o)
 .ARM.attributes
                0x000008f6       0x3a C:\Users\a5143778\e2_studio\customized_workspace\RA6T3_MCILV1_SPM_LESS_FOC_E2S_V101\ra\fsp\lib\rm_motor_speed\cm33_gcc\librm_motor_speed.a(rm_motor_speed_gain_calc.o)
 .ARM.attributes
                0x00000930       0x3a C:\Users\a5143778\e2_studio\customized_workspace\RA6T3_MCILV1_SPM_LESS_FOC_E2S_V101\ra\fsp\lib\rm_motor_speed\cm33_gcc\librm_motor_speed.a(rm_motor_speed_observer.o)
 .ARM.attributes
                0x0000096a       0x3a C:\Users\a5143778\e2_studio\customized_workspace\RA6T3_MCILV1_SPM_LESS_FOC_E2S_V101\ra\fsp\lib\rm_motor_speed\cm33_gcc\librm_motor_speed.a(rm_motor_speed_opl2less.o)
 .ARM.attributes
                0x000009a4       0x3a C:\Users\a5143778\e2_studio\customized_workspace\RA6T3_MCILV1_SPM_LESS_FOC_E2S_V101\ra\fsp\lib\rm_motor_speed\cm33_gcc\librm_motor_speed.a(rm_motor_speed_opl_damp_ctrl.o)
 .ARM.attributes
                0x000009de       0x38 c:/program files (x86)/gnu arm embedded toolchain/10 2021.10/bin/../lib/gcc/arm-none-eabi/10.3.1/../../../../arm-none-eabi/lib/thumb/v8-m.main+fp/hard\libg_nano.a(lib_a-errno.o)
 .ARM.attributes
                0x00000a16       0x38 c:/program files (x86)/gnu arm embedded toolchain/10 2021.10/bin/../lib/gcc/arm-none-eabi/10.3.1/../../../../arm-none-eabi/lib/thumb/v8-m.main+fp/hard\libg_nano.a(lib_a-impure.o)
 .ARM.attributes
                0x00000a4e       0x38 c:/program files (x86)/gnu arm embedded toolchain/10 2021.10/bin/../lib/gcc/arm-none-eabi/10.3.1/../../../../arm-none-eabi/lib/thumb/v8-m.main+fp/hard\libg_nano.a(lib_a-memcpy-stub.o)
 .ARM.attributes
                0x00000a86       0x38 c:/program files (x86)/gnu arm embedded toolchain/10 2021.10/bin/../lib/gcc/arm-none-eabi/10.3.1/../../../../arm-none-eabi/lib/thumb/v8-m.main+fp/hard\libg_nano.a(lib_a-memset.o)
 .ARM.attributes
                0x00000abe       0x38 c:/program files (x86)/gnu arm embedded toolchain/10 2021.10/bin/../lib/gcc/arm-none-eabi/10.3.1/../../../../arm-none-eabi/lib/thumb/v8-m.main+fp/hard\libc_nano.a(lib_a-findfp.o)
 .ARM.attributes
                0x00000af6       0x38 c:/program files (x86)/gnu arm embedded toolchain/10 2021.10/bin/../lib/gcc/arm-none-eabi/10.3.1/thumb/v8-m.main+fp/hard/crtend.o
 .ARM.attributes
                0x00000b2e       0x22 c:/program files (x86)/gnu arm embedded toolchain/10 2021.10/bin/../lib/gcc/arm-none-eabi/10.3.1/thumb/v8-m.main+fp/hard/crtn.o
 .ARM.attributes
                0x00000b50       0x38 c:/program files (x86)/gnu arm embedded toolchain/10 2021.10/bin/../lib/gcc/arm-none-eabi/10.3.1/../../../../arm-none-eabi/lib/thumb/v8-m.main+fp/hard\libm.a(lib_a-sf_atan.o)
 .ARM.attributes
                0x00000b88       0x38 c:/program files (x86)/gnu arm embedded toolchain/10 2021.10/bin/../lib/gcc/arm-none-eabi/10.3.1/../../../../arm-none-eabi/lib/thumb/v8-m.main+fp/hard\libm.a(lib_a-sf_cos.o)
 .ARM.attributes
                0x00000bc0       0x38 c:/program files (x86)/gnu arm embedded toolchain/10 2021.10/bin/../lib/gcc/arm-none-eabi/10.3.1/../../../../arm-none-eabi/lib/thumb/v8-m.main+fp/hard\libm.a(lib_a-sf_fabs.o)
 .ARM.attributes
                0x00000bf8       0x38 c:/program files (x86)/gnu arm embedded toolchain/10 2021.10/bin/../lib/gcc/arm-none-eabi/10.3.1/../../../../arm-none-eabi/lib/thumb/v8-m.main+fp/hard\libm.a(lib_a-sf_sin.o)
 .ARM.attributes
                0x00000c30       0x38 c:/program files (x86)/gnu arm embedded toolchain/10 2021.10/bin/../lib/gcc/arm-none-eabi/10.3.1/../../../../arm-none-eabi/lib/thumb/v8-m.main+fp/hard\libm.a(lib_a-wf_sqrt.o)
 .ARM.attributes
                0x00000c68       0x38 c:/program files (x86)/gnu arm embedded toolchain/10 2021.10/bin/../lib/gcc/arm-none-eabi/10.3.1/../../../../arm-none-eabi/lib/thumb/v8-m.main+fp/hard\libm.a(lib_a-ef_rem_pio2.o)
 .ARM.attributes
                0x00000ca0       0x38 c:/program files (x86)/gnu arm embedded toolchain/10 2021.10/bin/../lib/gcc/arm-none-eabi/10.3.1/../../../../arm-none-eabi/lib/thumb/v8-m.main+fp/hard\libm.a(lib_a-ef_sqrt.o)
 .ARM.attributes
                0x00000cd8       0x38 c:/program files (x86)/gnu arm embedded toolchain/10 2021.10/bin/../lib/gcc/arm-none-eabi/10.3.1/../../../../arm-none-eabi/lib/thumb/v8-m.main+fp/hard\libm.a(lib_a-kf_cos.o)
 .ARM.attributes
                0x00000d10       0x38 c:/program files (x86)/gnu arm embedded toolchain/10 2021.10/bin/../lib/gcc/arm-none-eabi/10.3.1/../../../../arm-none-eabi/lib/thumb/v8-m.main+fp/hard\libm.a(lib_a-kf_rem_pio2.o)
 .ARM.attributes
                0x00000d48       0x38 c:/program files (x86)/gnu arm embedded toolchain/10 2021.10/bin/../lib/gcc/arm-none-eabi/10.3.1/../../../../arm-none-eabi/lib/thumb/v8-m.main+fp/hard\libm.a(lib_a-kf_sin.o)
 .ARM.attributes
                0x00000d80       0x38 c:/program files (x86)/gnu arm embedded toolchain/10 2021.10/bin/../lib/gcc/arm-none-eabi/10.3.1/../../../../arm-none-eabi/lib/thumb/v8-m.main+fp/hard\libm.a(lib_a-sf_floor.o)
 .ARM.attributes
                0x00000db8       0x38 c:/program files (x86)/gnu arm embedded toolchain/10 2021.10/bin/../lib/gcc/arm-none-eabi/10.3.1/../../../../arm-none-eabi/lib/thumb/v8-m.main+fp/hard\libm.a(lib_a-sf_scalbn.o)

.comment        0x00000000       0x8d
 .comment       0x00000000       0x49 ./src/application/user_interface/ics/r_mtr_ics.o
                                 0x4a (size before relaxing)
 .comment       0x00000049       0x4a ./src/application/main/mtr_main.o
 .comment       0x00000049       0x4a ./src/hal_entry.o
 .comment       0x00000049       0x4a ./ra_gen/common_data.o
 .comment       0x00000049       0x4a ./ra_gen/elc_data.o
 .comment       0x00000049       0x4a ./ra_gen/hal_data.o
 .comment       0x00000049       0x4a ./ra_gen/main.o
 .comment       0x00000049       0x4a ./ra_gen/pin_data.o
 .comment       0x00000049       0x4a ./ra_gen/vector_data.o
 .comment       0x00000049       0x4a ./ra/fsp/src/rm_motor_speed/rm_motor_speed.o
 .comment       0x00000049       0x4a ./ra/fsp/src/rm_motor_sensorless/rm_motor_sensorless.o
 .comment       0x00000049       0x4a ./ra/fsp/src/rm_motor_estimate/rm_motor_estimate.o
 .comment       0x00000049       0x4a ./ra/fsp/src/rm_motor_driver/rm_motor_driver.o
 .comment       0x00000049       0x4a ./ra/fsp/src/rm_motor_current/rm_motor_current.o
 .comment       0x00000049       0x4a ./ra/fsp/src/r_poeg/r_poeg.o
 .comment       0x00000049       0x4a ./ra/fsp/src/r_ioport/r_ioport.o
 .comment       0x00000049       0x4a ./ra/fsp/src/r_gpt_three_phase/r_gpt_three_phase.o
 .comment       0x00000049       0x4a ./ra/fsp/src/r_gpt/r_gpt.o
 .comment       0x00000049       0x4a ./ra/fsp/src/r_elc/r_elc.o
 .comment       0x00000049       0x4a ./ra/fsp/src/r_agt/r_agt.o
 .comment       0x00000049       0x4a ./ra/fsp/src/r_adc/r_adc.o
 .comment       0x00000049       0x4a ./ra/fsp/src/bsp/mcu/all/bsp_clocks.o
 .comment       0x00000049       0x4a ./ra/fsp/src/bsp/mcu/all/bsp_common.o
 .comment       0x00000049       0x4a ./ra/fsp/src/bsp/mcu/all/bsp_delay.o
 .comment       0x00000049       0x4a ./ra/fsp/src/bsp/mcu/all/bsp_group_irq.o
 .comment       0x00000049       0x4a ./ra/fsp/src/bsp/mcu/all/bsp_io.o
 .comment       0x00000049       0x4a ./ra/fsp/src/bsp/mcu/all/bsp_irq.o
 .comment       0x00000049       0x4a ./ra/fsp/src/bsp/mcu/all/bsp_register_protection.o
 .comment       0x00000049       0x4a ./ra/fsp/src/bsp/mcu/all/bsp_rom_registers.o
 .comment       0x00000049       0x4a ./ra/fsp/src/bsp/cmsis/Device/RENESAS/Source/startup.o
 .comment       0x00000049       0x4a ./ra/fsp/src/bsp/cmsis/Device/RENESAS/Source/system.o
 .comment       0x00000049       0x4a ./ra/board/ra6t3_mck/board_init.o
 .comment       0x00000049       0x4a C:/Users/a5143778/e2_studio/customized_workspace/RA6T3_MCILV1_SPM_LESS_FOC_E2S_V101/src/application/user_interface/ics/ICS2_RA6T3.o
 .comment       0x00000049       0x44 C:\Users\a5143778\e2_studio\customized_workspace\RA6T3_MCILV1_SPM_LESS_FOC_E2S_V101\ra\fsp\lib\rm_motor_current\cm33_gcc\librm_motor_current.a(rm_motor_current_pi_gain_calc.o)
                                 0x45 (size before relaxing)
 .comment       0x0000008d       0x45 C:\Users\a5143778\e2_studio\customized_workspace\RA6T3_MCILV1_SPM_LESS_FOC_E2S_V101\ra\fsp\lib\rm_motor_current\cm33_gcc\librm_motor_current.a(rm_motor_volt_error_comp.o)
 .comment       0x0000008d       0x45 C:\Users\a5143778\e2_studio\customized_workspace\RA6T3_MCILV1_SPM_LESS_FOC_E2S_V101\ra\fsp\lib\rm_motor_estimate\cm33_gcc\librm_motor_estimate.a(rm_motor_estimate_bemf_observer.o)
 .comment       0x0000008d       0x45 C:\Users\a5143778\e2_studio\customized_workspace\RA6T3_MCILV1_SPM_LESS_FOC_E2S_V101\ra\fsp\lib\rm_motor_speed\cm33_gcc\librm_motor_speed.a(rm_motor_speed_disturbance_observer.o)
 .comment       0x0000008d       0x45 C:\Users\a5143778\e2_studio\customized_workspace\RA6T3_MCILV1_SPM_LESS_FOC_E2S_V101\ra\fsp\lib\rm_motor_speed\cm33_gcc\librm_motor_speed.a(rm_motor_speed_fluxwkn.o)
 .comment       0x0000008d       0x45 C:\Users\a5143778\e2_studio\customized_workspace\RA6T3_MCILV1_SPM_LESS_FOC_E2S_V101\ra\fsp\lib\rm_motor_speed\cm33_gcc\librm_motor_speed.a(rm_motor_speed_gain_calc.o)
 .comment       0x0000008d       0x45 C:\Users\a5143778\e2_studio\customized_workspace\RA6T3_MCILV1_SPM_LESS_FOC_E2S_V101\ra\fsp\lib\rm_motor_speed\cm33_gcc\librm_motor_speed.a(rm_motor_speed_observer.o)
 .comment       0x0000008d       0x45 C:\Users\a5143778\e2_studio\customized_workspace\RA6T3_MCILV1_SPM_LESS_FOC_E2S_V101\ra\fsp\lib\rm_motor_speed\cm33_gcc\librm_motor_speed.a(rm_motor_speed_opl2less.o)
 .comment       0x0000008d       0x45 C:\Users\a5143778\e2_studio\customized_workspace\RA6T3_MCILV1_SPM_LESS_FOC_E2S_V101\ra\fsp\lib\rm_motor_speed\cm33_gcc\librm_motor_speed.a(rm_motor_speed_opl_damp_ctrl.o)

.debug_info     0x00000000    0x6c043
 .debug_info    0x00000000     0x4d5d ./src/application/user_interface/ics/r_mtr_ics.o
 .debug_info    0x00004d5d     0x666a ./src/application/main/mtr_main.o
 .debug_info    0x0000b3c7     0x156b ./src/hal_entry.o
 .debug_info    0x0000c932     0x19cb ./ra_gen/common_data.o
 .debug_info    0x0000e2fd      0x603 ./ra_gen/elc_data.o
 .debug_info    0x0000e900     0xccfb ./ra_gen/hal_data.o
 .debug_info    0x0001b5fb       0xb8 ./ra_gen/main.o
 .debug_info    0x0001b6b3      0xa34 ./ra_gen/pin_data.o
 .debug_info    0x0001c0e7      0x596 ./ra_gen/vector_data.o
 .debug_info    0x0001c67d     0x2fd5 ./ra/fsp/src/rm_motor_speed/rm_motor_speed.o
 .debug_info    0x0001f652     0x4af9 ./ra/fsp/src/rm_motor_sensorless/rm_motor_sensorless.o
 .debug_info    0x0002414b     0x1648 ./ra/fsp/src/rm_motor_estimate/rm_motor_estimate.o
 .debug_info    0x00025793     0x5194 ./ra/fsp/src/rm_motor_driver/rm_motor_driver.o
 .debug_info    0x0002a927     0x44bc ./ra/fsp/src/rm_motor_current/rm_motor_current.o
 .debug_info    0x0002ede3     0x2f63 ./ra/fsp/src/r_poeg/r_poeg.o
 .debug_info    0x00031d46     0x3449 ./ra/fsp/src/r_ioport/r_ioport.o
 .debug_info    0x0003518f     0x41de ./ra/fsp/src/r_gpt_three_phase/r_gpt_three_phase.o
 .debug_info    0x0003936d     0xb827 ./ra/fsp/src/r_gpt/r_gpt.o
 .debug_info    0x00044b94     0x22ba ./ra/fsp/src/r_elc/r_elc.o
 .debug_info    0x00046e4e     0x7ef0 ./ra/fsp/src/r_agt/r_agt.o
 .debug_info    0x0004ed3e     0xb58d ./ra/fsp/src/r_adc/r_adc.o
 .debug_info    0x0005a2cb     0x4f60 ./ra/fsp/src/bsp/mcu/all/bsp_clocks.o
 .debug_info    0x0005f22b      0x955 ./ra/fsp/src/bsp/mcu/all/bsp_common.o
 .debug_info    0x0005fb80      0x1e9 ./ra/fsp/src/bsp/mcu/all/bsp_delay.o
 .debug_info    0x0005fd69     0x14c4 ./ra/fsp/src/bsp/mcu/all/bsp_group_irq.o
 .debug_info    0x0006122d       0xb1 ./ra/fsp/src/bsp/mcu/all/bsp_io.o
 .debug_info    0x000612de     0x1f01 ./ra/fsp/src/bsp/mcu/all/bsp_irq.o
 .debug_info    0x000631df     0x408e ./ra/fsp/src/bsp/mcu/all/bsp_register_protection.o
 .debug_info    0x0006726d      0x117 ./ra/fsp/src/bsp/mcu/all/bsp_rom_registers.o
 .debug_info    0x00067384      0x14f ./ra/fsp/src/bsp/cmsis/Device/RENESAS/Source/startup.o
 .debug_info    0x000674d3     0x1e79 ./ra/fsp/src/bsp/cmsis/Device/RENESAS/Source/system.o
 .debug_info    0x0006934c       0xa4 ./ra/board/ra6t3_mck/board_init.o
 .debug_info    0x000693f0     0x2c53 C:/Users/a5143778/e2_studio/customized_workspace/RA6T3_MCILV1_SPM_LESS_FOC_E2S_V101/src/application/user_interface/ics/ICS2_RA6T3.o

.debug_abbrev   0x00000000     0x5973
 .debug_abbrev  0x00000000      0x204 ./src/application/user_interface/ics/r_mtr_ics.o
 .debug_abbrev  0x00000204      0x409 ./src/application/main/mtr_main.o
 .debug_abbrev  0x0000060d      0x21c ./src/hal_entry.o
 .debug_abbrev  0x00000829      0x140 ./ra_gen/common_data.o
 .debug_abbrev  0x00000969       0xb8 ./ra_gen/elc_data.o
 .debug_abbrev  0x00000a21      0x328 ./ra_gen/hal_data.o
 .debug_abbrev  0x00000d49       0x66 ./ra_gen/main.o
 .debug_abbrev  0x00000daf       0xf6 ./ra_gen/pin_data.o
 .debug_abbrev  0x00000ea5       0xa7 ./ra_gen/vector_data.o
 .debug_abbrev  0x00000f4c      0x37d ./ra/fsp/src/rm_motor_speed/rm_motor_speed.o
 .debug_abbrev  0x000012c9      0x452 ./ra/fsp/src/rm_motor_sensorless/rm_motor_sensorless.o
 .debug_abbrev  0x0000171b      0x2a7 ./ra/fsp/src/rm_motor_estimate/rm_motor_estimate.o
 .debug_abbrev  0x000019c2      0x554 ./ra/fsp/src/rm_motor_driver/rm_motor_driver.o
 .debug_abbrev  0x00001f16      0x48e ./ra/fsp/src/rm_motor_current/rm_motor_current.o
 .debug_abbrev  0x000023a4      0x480 ./ra/fsp/src/r_poeg/r_poeg.o
 .debug_abbrev  0x00002824      0x469 ./ra/fsp/src/r_ioport/r_ioport.o
 .debug_abbrev  0x00002c8d      0x2ee ./ra/fsp/src/r_gpt_three_phase/r_gpt_three_phase.o
 .debug_abbrev  0x00002f7b      0x654 ./ra/fsp/src/r_gpt/r_gpt.o
 .debug_abbrev  0x000035cf      0x2e6 ./ra/fsp/src/r_elc/r_elc.o
 .debug_abbrev  0x000038b5      0x595 ./ra/fsp/src/r_agt/r_agt.o
 .debug_abbrev  0x00003e4a      0x5bf ./ra/fsp/src/r_adc/r_adc.o
 .debug_abbrev  0x00004409      0x36e ./ra/fsp/src/bsp/mcu/all/bsp_clocks.o
 .debug_abbrev  0x00004777      0x183 ./ra/fsp/src/bsp/mcu/all/bsp_common.o
 .debug_abbrev  0x000048fa      0x11a ./ra/fsp/src/bsp/mcu/all/bsp_delay.o
 .debug_abbrev  0x00004a14      0x254 ./ra/fsp/src/bsp/mcu/all/bsp_group_irq.o
 .debug_abbrev  0x00004c68       0x5e ./ra/fsp/src/bsp/mcu/all/bsp_io.o
 .debug_abbrev  0x00004cc6      0x26c ./ra/fsp/src/bsp/mcu/all/bsp_irq.o
 .debug_abbrev  0x00004f32      0x277 ./ra/fsp/src/bsp/mcu/all/bsp_register_protection.o
 .debug_abbrev  0x000051a9       0x5f ./ra/fsp/src/bsp/mcu/all/bsp_rom_registers.o
 .debug_abbrev  0x00005208       0xe6 ./ra/fsp/src/bsp/cmsis/Device/RENESAS/Source/startup.o
 .debug_abbrev  0x000052ee      0x30d ./ra/fsp/src/bsp/cmsis/Device/RENESAS/Source/system.o
 .debug_abbrev  0x000055fb       0x5c ./ra/board/ra6t3_mck/board_init.o
 .debug_abbrev  0x00005657      0x31c C:/Users/a5143778/e2_studio/customized_workspace/RA6T3_MCILV1_SPM_LESS_FOC_E2S_V101/src/application/user_interface/ics/ICS2_RA6T3.o

.debug_aranges  0x00000000      0x9b0
 .debug_aranges
                0x00000000       0x30 ./src/application/user_interface/ics/r_mtr_ics.o
 .debug_aranges
                0x00000030       0x40 ./src/application/main/mtr_main.o
 .debug_aranges
                0x00000070       0x28 ./src/hal_entry.o
 .debug_aranges
                0x00000098       0x20 ./ra_gen/common_data.o
 .debug_aranges
                0x000000b8       0x18 ./ra_gen/elc_data.o
 .debug_aranges
                0x000000d0       0x20 ./ra_gen/hal_data.o
 .debug_aranges
                0x000000f0       0x20 ./ra_gen/main.o
 .debug_aranges
                0x00000110       0x18 ./ra_gen/pin_data.o
 .debug_aranges
                0x00000128       0x18 ./ra_gen/vector_data.o
 .debug_aranges
                0x00000140       0x70 ./ra/fsp/src/rm_motor_speed/rm_motor_speed.o
 .debug_aranges
                0x000001b0       0xb8 ./ra/fsp/src/rm_motor_sensorless/rm_motor_sensorless.o
 .debug_aranges
                0x00000268       0x70 ./ra/fsp/src/rm_motor_estimate/rm_motor_estimate.o
 .debug_aranges
                0x000002d8       0x90 ./ra/fsp/src/rm_motor_driver/rm_motor_driver.o
 .debug_aranges
                0x00000368       0x98 ./ra/fsp/src/rm_motor_current/rm_motor_current.o
 .debug_aranges
                0x00000400       0x50 ./ra/fsp/src/r_poeg/r_poeg.o
 .debug_aranges
                0x00000450       0x90 ./ra/fsp/src/r_ioport/r_ioport.o
 .debug_aranges
                0x000004e0       0x50 ./ra/fsp/src/r_gpt_three_phase/r_gpt_three_phase.o
 .debug_aranges
                0x00000530       0xf0 ./ra/fsp/src/r_gpt/r_gpt.o
 .debug_aranges
                0x00000620       0x50 ./ra/fsp/src/r_elc/r_elc.o
 .debug_aranges
                0x00000670       0x90 ./ra/fsp/src/r_agt/r_agt.o
 .debug_aranges
                0x00000700       0xb8 ./ra/fsp/src/r_adc/r_adc.o
 .debug_aranges
                0x000007b8       0x60 ./ra/fsp/src/bsp/mcu/all/bsp_clocks.o
 .debug_aranges
                0x00000818       0x30 ./ra/fsp/src/bsp/mcu/all/bsp_common.o
 .debug_aranges
                0x00000848       0x28 ./ra/fsp/src/bsp/mcu/all/bsp_delay.o
 .debug_aranges
                0x00000870       0x28 ./ra/fsp/src/bsp/mcu/all/bsp_group_irq.o
 .debug_aranges
                0x00000898       0x18 ./ra/fsp/src/bsp/mcu/all/bsp_io.o
 .debug_aranges
                0x000008b0       0x20 ./ra/fsp/src/bsp/mcu/all/bsp_irq.o
 .debug_aranges
                0x000008d0       0x28 ./ra/fsp/src/bsp/mcu/all/bsp_register_protection.o
 .debug_aranges
                0x000008f8       0x18 ./ra/fsp/src/bsp/mcu/all/bsp_rom_registers.o
 .debug_aranges
                0x00000910       0x28 ./ra/fsp/src/bsp/cmsis/Device/RENESAS/Source/startup.o
 .debug_aranges
                0x00000938       0x28 ./ra/fsp/src/bsp/cmsis/Device/RENESAS/Source/system.o
 .debug_aranges
                0x00000960       0x20 ./ra/board/ra6t3_mck/board_init.o
 .debug_aranges
                0x00000980       0x30 C:/Users/a5143778/e2_studio/customized_workspace/RA6T3_MCILV1_SPM_LESS_FOC_E2S_V101/src/application/user_interface/ics/ICS2_RA6T3.o

.debug_ranges   0x00000000     0x2700
 .debug_ranges  0x00000000       0x20 ./src/application/user_interface/ics/r_mtr_ics.o
 .debug_ranges  0x00000020      0x220 ./src/application/main/mtr_main.o
 .debug_ranges  0x00000240       0x18 ./src/hal_entry.o
 .debug_ranges  0x00000258       0x10 ./ra_gen/common_data.o
 .debug_ranges  0x00000268       0x10 ./ra_gen/hal_data.o
 .debug_ranges  0x00000278       0x10 ./ra_gen/main.o
 .debug_ranges  0x00000288      0x448 ./ra/fsp/src/rm_motor_speed/rm_motor_speed.o
 .debug_ranges  0x000006d0      0x360 ./ra/fsp/src/rm_motor_sensorless/rm_motor_sensorless.o
 .debug_ranges  0x00000a30       0x98 ./ra/fsp/src/rm_motor_estimate/rm_motor_estimate.o
 .debug_ranges  0x00000ac8      0x300 ./ra/fsp/src/rm_motor_driver/rm_motor_driver.o
 .debug_ranges  0x00000dc8      0x2e8 ./ra/fsp/src/rm_motor_current/rm_motor_current.o
 .debug_ranges  0x000010b0      0x168 ./ra/fsp/src/r_poeg/r_poeg.o
 .debug_ranges  0x00001218      0x138 ./ra/fsp/src/r_ioport/r_ioport.o
 .debug_ranges  0x00001350       0x78 ./ra/fsp/src/r_gpt_three_phase/r_gpt_three_phase.o
 .debug_ranges  0x000013c8      0x4e0 ./ra/fsp/src/r_gpt/r_gpt.o
 .debug_ranges  0x000018a8       0x40 ./ra/fsp/src/r_elc/r_elc.o
 .debug_ranges  0x000018e8      0x360 ./ra/fsp/src/r_agt/r_agt.o
 .debug_ranges  0x00001c48      0x3b8 ./ra/fsp/src/r_adc/r_adc.o
 .debug_ranges  0x00002000      0x160 ./ra/fsp/src/bsp/mcu/all/bsp_clocks.o
 .debug_ranges  0x00002160       0x20 ./ra/fsp/src/bsp/mcu/all/bsp_common.o
 .debug_ranges  0x00002180       0x48 ./ra/fsp/src/bsp/mcu/all/bsp_delay.o
 .debug_ranges  0x000021c8       0x58 ./ra/fsp/src/bsp/mcu/all/bsp_group_irq.o
 .debug_ranges  0x00002220       0x70 ./ra/fsp/src/bsp/mcu/all/bsp_irq.o
 .debug_ranges  0x00002290       0x48 ./ra/fsp/src/bsp/mcu/all/bsp_register_protection.o
 .debug_ranges  0x000022d8       0x18 ./ra/fsp/src/bsp/cmsis/Device/RENESAS/Source/startup.o
 .debug_ranges  0x000022f0       0x30 ./ra/fsp/src/bsp/cmsis/Device/RENESAS/Source/system.o
 .debug_ranges  0x00002320       0x10 ./ra/board/ra6t3_mck/board_init.o
 .debug_ranges  0x00002330      0x3d0 C:/Users/a5143778/e2_studio/customized_workspace/RA6T3_MCILV1_SPM_LESS_FOC_E2S_V101/src/application/user_interface/ics/ICS2_RA6T3.o

.debug_line     0x00000000    0x11128
 .debug_line    0x00000000      0xaef ./src/application/user_interface/ics/r_mtr_ics.o
 .debug_line    0x00000aef      0xd59 ./src/application/main/mtr_main.o
 .debug_line    0x00001848      0x463 ./src/hal_entry.o
 .debug_line    0x00001cab      0x3b1 ./ra_gen/common_data.o
 .debug_line    0x0000205c      0x121 ./ra_gen/elc_data.o
 .debug_line    0x0000217d      0x54e ./ra_gen/hal_data.o
 .debug_line    0x000026cb       0x5e ./ra_gen/main.o
 .debug_line    0x00002729      0x26b ./ra_gen/pin_data.o
 .debug_line    0x00002994      0x135 ./ra_gen/vector_data.o
 .debug_line    0x00002ac9     0x10a0 ./ra/fsp/src/rm_motor_speed/rm_motor_speed.o
 .debug_line    0x00003b69     0x1004 ./ra/fsp/src/rm_motor_sensorless/rm_motor_sensorless.o
 .debug_line    0x00004b6d      0x651 ./ra/fsp/src/rm_motor_estimate/rm_motor_estimate.o
 .debug_line    0x000051be     0x19c6 ./ra/fsp/src/rm_motor_driver/rm_motor_driver.o
 .debug_line    0x00006b84     0x1232 ./ra/fsp/src/rm_motor_current/rm_motor_current.o
 .debug_line    0x00007db6      0x869 ./ra/fsp/src/r_poeg/r_poeg.o
 .debug_line    0x0000861f      0xbc7 ./ra/fsp/src/r_ioport/r_ioport.o
 .debug_line    0x000091e6      0x5e6 ./ra/fsp/src/r_gpt_three_phase/r_gpt_three_phase.o
 .debug_line    0x000097cc     0x18cd ./ra/fsp/src/r_gpt/r_gpt.o
 .debug_line    0x0000b099      0x5a1 ./ra/fsp/src/r_elc/r_elc.o
 .debug_line    0x0000b63a     0x123a ./ra/fsp/src/r_agt/r_agt.o
 .debug_line    0x0000c874     0x14a1 ./ra/fsp/src/r_adc/r_adc.o
 .debug_line    0x0000dd15      0x7c5 ./ra/fsp/src/bsp/mcu/all/bsp_clocks.o
 .debug_line    0x0000e4da      0x2e2 ./ra/fsp/src/bsp/mcu/all/bsp_common.o
 .debug_line    0x0000e7bc      0x2eb ./ra/fsp/src/bsp/mcu/all/bsp_delay.o
 .debug_line    0x0000eaa7      0x368 ./ra/fsp/src/bsp/mcu/all/bsp_group_irq.o
 .debug_line    0x0000ee0f      0x18d ./ra/fsp/src/bsp/mcu/all/bsp_io.o
 .debug_line    0x0000ef9c      0x48d ./ra/fsp/src/bsp/mcu/all/bsp_irq.o
 .debug_line    0x0000f429      0x413 ./ra/fsp/src/bsp/mcu/all/bsp_register_protection.o
 .debug_line    0x0000f83c      0x121 ./ra/fsp/src/bsp/mcu/all/bsp_rom_registers.o
 .debug_line    0x0000f95d      0x211 ./ra/fsp/src/bsp/cmsis/Device/RENESAS/Source/startup.o
 .debug_line    0x0000fb6e      0x5fb ./ra/fsp/src/bsp/cmsis/Device/RENESAS/Source/system.o
 .debug_line    0x00010169       0x5b ./ra/board/ra6t3_mck/board_init.o
 .debug_line    0x000101c4      0xf64 C:/Users/a5143778/e2_studio/customized_workspace/RA6T3_MCILV1_SPM_LESS_FOC_E2S_V101/src/application/user_interface/ics/ICS2_RA6T3.o

.debug_str      0x00000000    0x16075
 .debug_str     0x00000000     0x71c2 ./src/application/user_interface/ics/r_mtr_ics.o
                               0x7429 (size before relaxing)
 .debug_str     0x000071c2     0x265c ./src/application/main/mtr_main.o
                               0x95d7 (size before relaxing)
 .debug_str     0x0000981e      0x39e ./src/hal_entry.o
                               0x345a (size before relaxing)
 .debug_str     0x00009bbc       0x92 ./ra_gen/common_data.o
                               0x46f5 (size before relaxing)
 .debug_str     0x00009c4e       0x15 ./ra_gen/elc_data.o
                               0x1489 (size before relaxing)
 .debug_str     0x00009c63     0x438b ./ra_gen/hal_data.o
                               0xd3c3 (size before relaxing)
 .debug_str     0x0000dfee       0x11 ./ra_gen/main.o
                                0x1ee (size before relaxing)
 .debug_str     0x0000dfff      0x660 ./ra_gen/pin_data.o
                               0x1d91 (size before relaxing)
 .debug_str     0x0000e65f       0x68 ./ra_gen/vector_data.o
                               0x1335 (size before relaxing)
 .debug_str     0x0000e6c7      0x6c6 ./ra/fsp/src/rm_motor_speed/rm_motor_speed.o
                               0x3cd4 (size before relaxing)
 .debug_str     0x0000ed8d      0x5d5 ./ra/fsp/src/rm_motor_sensorless/rm_motor_sensorless.o
                               0x614b (size before relaxing)
 .debug_str     0x0000f362      0x381 ./ra/fsp/src/rm_motor_estimate/rm_motor_estimate.o
                               0x2727 (size before relaxing)
 .debug_str     0x0000f6e3      0x91a ./ra/fsp/src/rm_motor_driver/rm_motor_driver.o
                               0x7450 (size before relaxing)
 .debug_str     0x0000fffd      0x5bf ./ra/fsp/src/rm_motor_current/rm_motor_current.o
                               0x58d3 (size before relaxing)
 .debug_str     0x000105bc      0xacf ./ra/fsp/src/r_poeg/r_poeg.o
                               0x2d8f (size before relaxing)
 .debug_str     0x0001108b      0x6e8 ./ra/fsp/src/r_ioport/r_ioport.o
                               0x40b3 (size before relaxing)
 .debug_str     0x00011773      0x20d ./ra/fsp/src/r_gpt_three_phase/r_gpt_three_phase.o
                               0x3827 (size before relaxing)
 .debug_str     0x00011980     0x20e8 ./ra/fsp/src/r_gpt/r_gpt.o
                               0x6f09 (size before relaxing)
 .debug_str     0x00013a68      0x1af ./ra/fsp/src/r_elc/r_elc.o
                               0x36b4 (size before relaxing)
 .debug_str     0x00013c17      0x239 ./ra/fsp/src/r_agt/r_agt.o
                               0x4e0d (size before relaxing)
 .debug_str     0x00013e50      0x59b ./ra/fsp/src/r_adc/r_adc.o
                               0x7d2a (size before relaxing)
 .debug_str     0x000143eb      0x6e8 ./ra/fsp/src/bsp/mcu/all/bsp_clocks.o
                               0x22ec (size before relaxing)
 .debug_str     0x00014ad3      0x106 ./ra/fsp/src/bsp/mcu/all/bsp_common.o
                               0x1c3b (size before relaxing)
 .debug_str     0x00014bd9       0xab ./ra/fsp/src/bsp/mcu/all/bsp_delay.o
                                0x317 (size before relaxing)
 .debug_str     0x00014c84      0x1e4 ./ra/fsp/src/bsp/mcu/all/bsp_group_irq.o
                               0x21a2 (size before relaxing)
 .debug_str     0x00014e68       0x23 ./ra/fsp/src/bsp/mcu/all/bsp_io.o
                                0x217 (size before relaxing)
 .debug_str     0x00014e8b      0x511 ./ra/fsp/src/bsp/mcu/all/bsp_irq.o
                               0x1d31 (size before relaxing)
 .debug_str     0x0001539c       0x88 ./ra/fsp/src/bsp/mcu/all/bsp_register_protection.o
                               0x1b6e (size before relaxing)
 .debug_str     0x00015424       0x88 ./ra/fsp/src/bsp/mcu/all/bsp_rom_registers.o
                                0x264 (size before relaxing)
 .debug_str     0x000154ac       0x82 ./ra/fsp/src/bsp/cmsis/Device/RENESAS/Source/startup.o
                                0x261 (size before relaxing)
 .debug_str     0x0001552e      0x4c6 ./ra/fsp/src/bsp/cmsis/Device/RENESAS/Source/system.o
                                0xf0d (size before relaxing)
 .debug_str     0x000159f4       0x23 ./ra/board/ra6t3_mck/board_init.o
                                0x1fb (size before relaxing)
 .debug_str     0x00015a17      0x65e C:/Users/a5143778/e2_studio/customized_workspace/RA6T3_MCILV1_SPM_LESS_FOC_E2S_V101/src/application/user_interface/ics/ICS2_RA6T3.o
                                0xce9 (size before relaxing)

.debug_frame    0x00000000     0x1b98
 .debug_frame   0x00000000       0x70 ./src/application/user_interface/ics/r_mtr_ics.o
 .debug_frame   0x00000070      0x100 ./src/application/main/mtr_main.o
 .debug_frame   0x00000170       0x38 ./src/hal_entry.o
 .debug_frame   0x000001a8       0x20 ./ra_gen/common_data.o
 .debug_frame   0x000001c8       0x20 ./ra_gen/hal_data.o
 .debug_frame   0x000001e8       0x28 ./ra_gen/main.o
 .debug_frame   0x00000210      0x180 ./ra/fsp/src/rm_motor_speed/rm_motor_speed.o
 .debug_frame   0x00000390      0x254 ./ra/fsp/src/rm_motor_sensorless/rm_motor_sensorless.o
 .debug_frame   0x000005e4      0x15c ./ra/fsp/src/rm_motor_estimate/rm_motor_estimate.o
 .debug_frame   0x00000740      0x1f8 ./ra/fsp/src/rm_motor_driver/rm_motor_driver.o
 .debug_frame   0x00000938      0x1ec ./ra/fsp/src/rm_motor_current/rm_motor_current.o
 .debug_frame   0x00000b24       0xb0 ./ra/fsp/src/r_poeg/r_poeg.o
 .debug_frame   0x00000bd4      0x16c ./ra/fsp/src/r_ioport/r_ioport.o
 .debug_frame   0x00000d40       0xa4 ./ra/fsp/src/r_gpt_three_phase/r_gpt_three_phase.o
 .debug_frame   0x00000de4      0x29c ./ra/fsp/src/r_gpt/r_gpt.o
 .debug_frame   0x00001080       0x8c ./ra/fsp/src/r_elc/r_elc.o
 .debug_frame   0x0000110c      0x1a4 ./ra/fsp/src/r_agt/r_agt.o
 .debug_frame   0x000012b0      0x1e0 ./ra/fsp/src/r_adc/r_adc.o
 .debug_frame   0x00001490       0xd0 ./ra/fsp/src/bsp/mcu/all/bsp_clocks.o
 .debug_frame   0x00001560       0x40 ./ra/fsp/src/bsp/mcu/all/bsp_common.o
 .debug_frame   0x000015a0       0x44 ./ra/fsp/src/bsp/mcu/all/bsp_delay.o
 .debug_frame   0x000015e4       0x3c ./ra/fsp/src/bsp/mcu/all/bsp_group_irq.o
 .debug_frame   0x00001620       0x30 ./ra/fsp/src/bsp/mcu/all/bsp_irq.o
 .debug_frame   0x00001650       0x48 ./ra/fsp/src/bsp/mcu/all/bsp_register_protection.o
 .debug_frame   0x00001698       0x38 ./ra/fsp/src/bsp/cmsis/Device/RENESAS/Source/startup.o
 .debug_frame   0x000016d0       0x44 ./ra/fsp/src/bsp/cmsis/Device/RENESAS/Source/system.o
 .debug_frame   0x00001714       0x20 ./ra/board/ra6t3_mck/board_init.o
 .debug_frame   0x00001734       0x64 C:/Users/a5143778/e2_studio/customized_workspace/RA6T3_MCILV1_SPM_LESS_FOC_E2S_V101/src/application/user_interface/ics/ICS2_RA6T3.o
 .debug_frame   0x00001798       0x20 c:/program files (x86)/gnu arm embedded toolchain/10 2021.10/bin/../lib/gcc/arm-none-eabi/10.3.1/../../../../arm-none-eabi/lib/thumb/v8-m.main+fp/hard\libg_nano.a(lib_a-errno.o)
 .debug_frame   0x000017b8       0x28 c:/program files (x86)/gnu arm embedded toolchain/10 2021.10/bin/../lib/gcc/arm-none-eabi/10.3.1/../../../../arm-none-eabi/lib/thumb/v8-m.main+fp/hard\libg_nano.a(lib_a-memcpy-stub.o)
 .debug_frame   0x000017e0       0x20 c:/program files (x86)/gnu arm embedded toolchain/10 2021.10/bin/../lib/gcc/arm-none-eabi/10.3.1/../../../../arm-none-eabi/lib/thumb/v8-m.main+fp/hard\libg_nano.a(lib_a-memset.o)
 .debug_frame   0x00001800      0x14c c:/program files (x86)/gnu arm embedded toolchain/10 2021.10/bin/../lib/gcc/arm-none-eabi/10.3.1/../../../../arm-none-eabi/lib/thumb/v8-m.main+fp/hard\libc_nano.a(lib_a-findfp.o)
 .debug_frame   0x0000194c       0x2c c:/program files (x86)/gnu arm embedded toolchain/10 2021.10/bin/../lib/gcc/arm-none-eabi/10.3.1/../../../../arm-none-eabi/lib/thumb/v8-m.main+fp/hard\libm.a(lib_a-sf_atan.o)
 .debug_frame   0x00001978       0x34 c:/program files (x86)/gnu arm embedded toolchain/10 2021.10/bin/../lib/gcc/arm-none-eabi/10.3.1/../../../../arm-none-eabi/lib/thumb/v8-m.main+fp/hard\libm.a(lib_a-sf_cos.o)
 .debug_frame   0x000019ac       0x20 c:/program files (x86)/gnu arm embedded toolchain/10 2021.10/bin/../lib/gcc/arm-none-eabi/10.3.1/../../../../arm-none-eabi/lib/thumb/v8-m.main+fp/hard\libm.a(lib_a-sf_fabs.o)
 .debug_frame   0x000019cc       0x34 c:/program files (x86)/gnu arm embedded toolchain/10 2021.10/bin/../lib/gcc/arm-none-eabi/10.3.1/../../../../arm-none-eabi/lib/thumb/v8-m.main+fp/hard\libm.a(lib_a-sf_sin.o)
 .debug_frame   0x00001a00       0x44 c:/program files (x86)/gnu arm embedded toolchain/10 2021.10/bin/../lib/gcc/arm-none-eabi/10.3.1/../../../../arm-none-eabi/lib/thumb/v8-m.main+fp/hard\libm.a(lib_a-wf_sqrt.o)
 .debug_frame   0x00001a44       0x3c c:/program files (x86)/gnu arm embedded toolchain/10 2021.10/bin/../lib/gcc/arm-none-eabi/10.3.1/../../../../arm-none-eabi/lib/thumb/v8-m.main+fp/hard\libm.a(lib_a-ef_rem_pio2.o)
 .debug_frame   0x00001a80       0x20 c:/program files (x86)/gnu arm embedded toolchain/10 2021.10/bin/../lib/gcc/arm-none-eabi/10.3.1/../../../../arm-none-eabi/lib/thumb/v8-m.main+fp/hard\libm.a(lib_a-ef_sqrt.o)
 .debug_frame   0x00001aa0       0x20 c:/program files (x86)/gnu arm embedded toolchain/10 2021.10/bin/../lib/gcc/arm-none-eabi/10.3.1/../../../../arm-none-eabi/lib/thumb/v8-m.main+fp/hard\libm.a(lib_a-kf_cos.o)
 .debug_frame   0x00001ac0       0x5c c:/program files (x86)/gnu arm embedded toolchain/10 2021.10/bin/../lib/gcc/arm-none-eabi/10.3.1/../../../../arm-none-eabi/lib/thumb/v8-m.main+fp/hard\libm.a(lib_a-kf_rem_pio2.o)
 .debug_frame   0x00001b1c       0x20 c:/program files (x86)/gnu arm embedded toolchain/10 2021.10/bin/../lib/gcc/arm-none-eabi/10.3.1/../../../../arm-none-eabi/lib/thumb/v8-m.main+fp/hard\libm.a(lib_a-kf_sin.o)
 .debug_frame   0x00001b3c       0x20 c:/program files (x86)/gnu arm embedded toolchain/10 2021.10/bin/../lib/gcc/arm-none-eabi/10.3.1/../../../../arm-none-eabi/lib/thumb/v8-m.main+fp/hard\libm.a(lib_a-sf_floor.o)
 .debug_frame   0x00001b5c       0x3c c:/program files (x86)/gnu arm embedded toolchain/10 2021.10/bin/../lib/gcc/arm-none-eabi/10.3.1/../../../../arm-none-eabi/lib/thumb/v8-m.main+fp/hard\libm.a(lib_a-sf_scalbn.o)

.debug_loc      0x00000000     0xc7bb
 .debug_loc     0x00000000      0x5ef ./src/application/main/mtr_main.o
 .debug_loc     0x000005ef       0x25 ./src/hal_entry.o
 .debug_loc     0x00000614     0x13a5 ./ra/fsp/src/rm_motor_speed/rm_motor_speed.o
 .debug_loc     0x000019b9     0x1072 ./ra/fsp/src/rm_motor_sensorless/rm_motor_sensorless.o
 .debug_loc     0x00002a2b      0x492 ./ra/fsp/src/rm_motor_estimate/rm_motor_estimate.o
 .debug_loc     0x00002ebd     0x1dd3 ./ra/fsp/src/rm_motor_driver/rm_motor_driver.o
 .debug_loc     0x00004c90     0x13c3 ./ra/fsp/src/rm_motor_current/rm_motor_current.o
 .debug_loc     0x00006053      0x534 ./ra/fsp/src/r_poeg/r_poeg.o
 .debug_loc     0x00006587      0xb1c ./ra/fsp/src/r_ioport/r_ioport.o
 .debug_loc     0x000070a3      0x35c ./ra/fsp/src/r_gpt_three_phase/r_gpt_three_phase.o
 .debug_loc     0x000073ff     0x1b21 ./ra/fsp/src/r_gpt/r_gpt.o
 .debug_loc     0x00008f20      0x267 ./ra/fsp/src/r_elc/r_elc.o
 .debug_loc     0x00009187     0x13a8 ./ra/fsp/src/r_agt/r_agt.o
 .debug_loc     0x0000a52f     0x146d ./ra/fsp/src/r_adc/r_adc.o
 .debug_loc     0x0000b99c      0x311 ./ra/fsp/src/bsp/mcu/all/bsp_clocks.o
 .debug_loc     0x0000bcad       0x22 ./ra/fsp/src/bsp/mcu/all/bsp_common.o
 .debug_loc     0x0000bccf      0x178 ./ra/fsp/src/bsp/mcu/all/bsp_delay.o
 .debug_loc     0x0000be47       0xbf ./ra/fsp/src/bsp/mcu/all/bsp_group_irq.o
 .debug_loc     0x0000bf06      0x105 ./ra/fsp/src/bsp/mcu/all/bsp_irq.o
 .debug_loc     0x0000c00b      0x105 ./ra/fsp/src/bsp/mcu/all/bsp_register_protection.o
 .debug_loc     0x0000c110      0x130 ./ra/fsp/src/bsp/cmsis/Device/RENESAS/Source/system.o
 .debug_loc     0x0000c240      0x57b C:/Users/a5143778/e2_studio/customized_workspace/RA6T3_MCILV1_SPM_LESS_FOC_E2S_V101/src/application/user_interface/ics/ICS2_RA6T3.o
